
nrf24L01Atmega4.elf:     file format elf32-avr

Sections:
Idx Name          Size      VMA       LMA       File off  Algn
  0 .text         00000ebe  00000000  00000000  00000094  2**1
                  CONTENTS, ALLOC, LOAD, READONLY, CODE
  1 .data         00000022  00800060  00000ebe  00000f52  2**0
                  CONTENTS, ALLOC, LOAD, DATA
  2 .bss          00000021  00800082  00800082  00000f74  2**0
                  ALLOC
  3 .comment      00000030  00000000  00000000  00000f74  2**0
                  CONTENTS, READONLY
  4 .note.gnu.avr.deviceinfo 0000003c  00000000  00000000  00000fa4  2**2
                  CONTENTS, READONLY
  5 .debug_info   0000052e  00000000  00000000  00000fe0  2**0
                  CONTENTS, READONLY, DEBUGGING
  6 .debug_abbrev 000004e7  00000000  00000000  0000150e  2**0
                  CONTENTS, READONLY, DEBUGGING
  7 .debug_line   00000115  00000000  00000000  000019f5  2**0
                  CONTENTS, READONLY, DEBUGGING
  8 .debug_str    000001af  00000000  00000000  00001b0a  2**0
                  CONTENTS, READONLY, DEBUGGING

Disassembly of section .text:

00000000 <__vectors>:
   0:	0c 94 2a 00 	jmp	0x54	; 0x54 <__ctors_end>
   4:	0c 94 76 04 	jmp	0x8ec	; 0x8ec <__vector_1>
   8:	0c 94 47 00 	jmp	0x8e	; 0x8e <__bad_interrupt>
   c:	0c 94 47 00 	jmp	0x8e	; 0x8e <__bad_interrupt>
  10:	0c 94 47 00 	jmp	0x8e	; 0x8e <__bad_interrupt>
  14:	0c 94 47 00 	jmp	0x8e	; 0x8e <__bad_interrupt>
  18:	0c 94 47 00 	jmp	0x8e	; 0x8e <__bad_interrupt>
  1c:	0c 94 47 00 	jmp	0x8e	; 0x8e <__bad_interrupt>
  20:	0c 94 47 00 	jmp	0x8e	; 0x8e <__bad_interrupt>
  24:	0c 94 47 00 	jmp	0x8e	; 0x8e <__bad_interrupt>
  28:	0c 94 47 00 	jmp	0x8e	; 0x8e <__bad_interrupt>
  2c:	0c 94 47 00 	jmp	0x8e	; 0x8e <__bad_interrupt>
  30:	0c 94 47 00 	jmp	0x8e	; 0x8e <__bad_interrupt>
  34:	0c 94 47 00 	jmp	0x8e	; 0x8e <__bad_interrupt>
  38:	0c 94 47 00 	jmp	0x8e	; 0x8e <__bad_interrupt>
  3c:	0c 94 47 00 	jmp	0x8e	; 0x8e <__bad_interrupt>
  40:	0c 94 47 00 	jmp	0x8e	; 0x8e <__bad_interrupt>
  44:	0c 94 47 00 	jmp	0x8e	; 0x8e <__bad_interrupt>
  48:	0c 94 47 00 	jmp	0x8e	; 0x8e <__bad_interrupt>
  4c:	0c 94 47 00 	jmp	0x8e	; 0x8e <__bad_interrupt>
  50:	0c 94 47 00 	jmp	0x8e	; 0x8e <__bad_interrupt>

00000054 <__ctors_end>:
  54:	11 24       	eor	r1, r1
  56:	1f be       	out	0x3f, r1	; 63
  58:	cf e5       	ldi	r28, 0x5F	; 95
  5a:	d4 e0       	ldi	r29, 0x04	; 4
  5c:	de bf       	out	0x3e, r29	; 62
  5e:	cd bf       	out	0x3d, r28	; 61

00000060 <__do_copy_data>:
  60:	10 e0       	ldi	r17, 0x00	; 0
  62:	a0 e6       	ldi	r26, 0x60	; 96
  64:	b0 e0       	ldi	r27, 0x00	; 0
  66:	ee eb       	ldi	r30, 0xBE	; 190
  68:	fe e0       	ldi	r31, 0x0E	; 14
  6a:	02 c0       	rjmp	.+4      	; 0x70 <__do_copy_data+0x10>
  6c:	05 90       	lpm	r0, Z+
  6e:	0d 92       	st	X+, r0
  70:	a2 38       	cpi	r26, 0x82	; 130
  72:	b1 07       	cpc	r27, r17
  74:	d9 f7       	brne	.-10     	; 0x6c <__do_copy_data+0xc>

00000076 <__do_clear_bss>:
  76:	20 e0       	ldi	r18, 0x00	; 0
  78:	a2 e8       	ldi	r26, 0x82	; 130
  7a:	b0 e0       	ldi	r27, 0x00	; 0
  7c:	01 c0       	rjmp	.+2      	; 0x80 <.do_clear_bss_start>

0000007e <.do_clear_bss_loop>:
  7e:	1d 92       	st	X+, r1

00000080 <.do_clear_bss_start>:
  80:	a3 3a       	cpi	r26, 0xA3	; 163
  82:	b2 07       	cpc	r27, r18
  84:	e1 f7       	brne	.-8      	; 0x7e <.do_clear_bss_loop>
  86:	0e 94 a8 03 	call	0x750	; 0x750 <main>
  8a:	0c 94 5d 07 	jmp	0xeba	; 0xeba <_exit>

0000008e <__bad_interrupt>:
  8e:	0c 94 00 00 	jmp	0	; 0x0 <__vectors>

00000092 <DHT_ReadRaw>:
  92:	8f 92       	push	r8
  94:	9f 92       	push	r9
  96:	af 92       	push	r10
  98:	bf 92       	push	r11
  9a:	df 92       	push	r13
  9c:	ef 92       	push	r14
  9e:	ff 92       	push	r15
  a0:	0f 93       	push	r16
  a2:	1f 93       	push	r17
  a4:	cf 93       	push	r28
  a6:	df 93       	push	r29
  a8:	00 d0       	rcall	.+0      	; 0xaa <DHT_ReadRaw+0x18>
  aa:	00 d0       	rcall	.+0      	; 0xac <DHT_ReadRaw+0x1a>
  ac:	1f 92       	push	r1
  ae:	cd b7       	in	r28, 0x3d	; 61
  b0:	de b7       	in	r29, 0x3e	; 62
  b2:	d8 2e       	mov	r13, r24
  b4:	e9 2e       	mov	r14, r25
  b6:	8e 01       	movw	r16, r28
  b8:	0f 5f       	subi	r16, 0xFF	; 255
  ba:	1f 4f       	sbci	r17, 0xFF	; 255
  bc:	85 e0       	ldi	r24, 0x05	; 5
  be:	f8 01       	movw	r30, r16
  c0:	11 92       	st	Z+, r1
  c2:	8a 95       	dec	r24
  c4:	e9 f7       	brne	.-6      	; 0xc0 <DHT_ReadRaw+0x2e>
  c6:	10 92 a2 00 	sts	0x00A2, r1	; 0x8000a2 <__DHT_STATUS>
  ca:	a8 98       	cbi	0x15, 0	; 21
  cc:	a0 9a       	sbi	0x14, 0	; 20
  ce:	ff ef       	ldi	r31, 0xFF	; 255
  d0:	29 ef       	ldi	r18, 0xF9	; 249
  d2:	30 e0       	ldi	r19, 0x00	; 0
  d4:	f1 50       	subi	r31, 0x01	; 1
  d6:	20 40       	sbci	r18, 0x00	; 0
  d8:	30 40       	sbci	r19, 0x00	; 0
  da:	e1 f7       	brne	.-8      	; 0xd4 <DHT_ReadRaw+0x42>
  dc:	00 c0       	rjmp	.+0      	; 0xde <DHT_ReadRaw+0x4c>
  de:	00 00       	nop
  e0:	a8 9a       	sbi	0x15, 0	; 21
  e2:	a0 98       	cbi	0x14, 0	; 20
  e4:	8d e3       	ldi	r24, 0x3D	; 61
  e6:	98 9b       	sbis	0x13, 0	; 19
  e8:	0d c0       	rjmp	.+26     	; 0x104 <DHT_ReadRaw+0x72>
  ea:	9a e0       	ldi	r25, 0x0A	; 10
  ec:	9a 95       	dec	r25
  ee:	f1 f7       	brne	.-4      	; 0xec <DHT_ReadRaw+0x5a>
  f0:	00 c0       	rjmp	.+0      	; 0xf2 <DHT_ReadRaw+0x60>
  f2:	81 50       	subi	r24, 0x01	; 1
  f4:	c1 f7       	brne	.-16     	; 0xe6 <DHT_ReadRaw+0x54>
  f6:	8a e6       	ldi	r24, 0x6A	; 106
  f8:	90 e0       	ldi	r25, 0x00	; 0
  fa:	0e 94 bb 01 	call	0x376	; 0x376 <Uart_Send_String>
  fe:	84 e0       	ldi	r24, 0x04	; 4
 100:	80 93 a2 00 	sts	0x00A2, r24	; 0x8000a2 <__DHT_STATUS>
 104:	80 91 a2 00 	lds	r24, 0x00A2	; 0x8000a2 <__DHT_STATUS>
 108:	81 11       	cpse	r24, r1
 10a:	48 c0       	rjmp	.+144    	; 0x19c <DHT_ReadRaw+0x10a>
 10c:	98 9b       	sbis	0x13, 0	; 19
 10e:	fe cf       	rjmp	.-4      	; 0x10c <DHT_ReadRaw+0x7a>
 110:	98 99       	sbic	0x13, 0	; 19
 112:	fe cf       	rjmp	.-4      	; 0x110 <DHT_ReadRaw+0x7e>
 114:	90 e0       	ldi	r25, 0x00	; 0
 116:	81 2c       	mov	r8, r1
 118:	91 2c       	mov	r9, r1
 11a:	54 01       	movw	r10, r8
 11c:	83 94       	inc	r8
 11e:	24 e0       	ldi	r18, 0x04	; 4
 120:	f2 2e       	mov	r15, r18
 122:	87 e0       	ldi	r24, 0x07	; 7
 124:	24 e2       	ldi	r18, 0x24	; 36
 126:	98 99       	sbic	0x13, 0	; 19
 128:	0e c0       	rjmp	.+28     	; 0x146 <DHT_ReadRaw+0xb4>
 12a:	ea e0       	ldi	r30, 0x0A	; 10
 12c:	ea 95       	dec	r30
 12e:	f1 f7       	brne	.-4      	; 0x12c <DHT_ReadRaw+0x9a>
 130:	00 c0       	rjmp	.+0      	; 0x132 <DHT_ReadRaw+0xa0>
 132:	21 50       	subi	r18, 0x01	; 1
 134:	c1 f7       	brne	.-16     	; 0x126 <DHT_ReadRaw+0x94>
 136:	8f e6       	ldi	r24, 0x6F	; 111
 138:	90 e0       	ldi	r25, 0x00	; 0
 13a:	0e 94 bb 01 	call	0x376	; 0x376 <Uart_Send_String>
 13e:	f0 92 a2 00 	sts	0x00A2, r15	; 0x8000a2 <__DHT_STATUS>
 142:	8f ef       	ldi	r24, 0xFF	; 255
 144:	95 e0       	ldi	r25, 0x05	; 5
 146:	20 91 a2 00 	lds	r18, 0x00A2	; 0x8000a2 <__DHT_STATUS>
 14a:	21 11       	cpse	r18, r1
 14c:	21 c0       	rjmp	.+66     	; 0x190 <DHT_ReadRaw+0xfe>
 14e:	fa eb       	ldi	r31, 0xBA	; 186
 150:	fa 95       	dec	r31
 152:	f1 f7       	brne	.-4      	; 0x150 <DHT_ReadRaw+0xbe>
 154:	00 c0       	rjmp	.+0      	; 0x156 <DHT_ReadRaw+0xc4>
 156:	98 9b       	sbis	0x13, 0	; 19
 158:	10 c0       	rjmp	.+32     	; 0x17a <DHT_ReadRaw+0xe8>
 15a:	f8 01       	movw	r30, r16
 15c:	e9 0f       	add	r30, r25
 15e:	f1 1d       	adc	r31, r1
 160:	20 81       	ld	r18, Z
 162:	b5 01       	movw	r22, r10
 164:	a4 01       	movw	r20, r8
 166:	08 2e       	mov	r0, r24
 168:	04 c0       	rjmp	.+8      	; 0x172 <DHT_ReadRaw+0xe0>
 16a:	44 0f       	add	r20, r20
 16c:	55 1f       	adc	r21, r21
 16e:	66 1f       	adc	r22, r22
 170:	77 1f       	adc	r23, r23
 172:	0a 94       	dec	r0
 174:	d2 f7       	brpl	.-12     	; 0x16a <DHT_ReadRaw+0xd8>
 176:	42 2b       	or	r20, r18
 178:	40 83       	st	Z, r20
 17a:	23 e3       	ldi	r18, 0x33	; 51
 17c:	98 9b       	sbis	0x13, 0	; 19
 17e:	08 c0       	rjmp	.+16     	; 0x190 <DHT_ReadRaw+0xfe>
 180:	3a e0       	ldi	r19, 0x0A	; 10
 182:	3a 95       	dec	r19
 184:	f1 f7       	brne	.-4      	; 0x182 <DHT_ReadRaw+0xf0>
 186:	00 c0       	rjmp	.+0      	; 0x188 <DHT_ReadRaw+0xf6>
 188:	21 50       	subi	r18, 0x01	; 1
 18a:	c1 f7       	brne	.-16     	; 0x17c <DHT_ReadRaw+0xea>
 18c:	f0 92 a2 00 	sts	0x00A2, r15	; 0x8000a2 <__DHT_STATUS>
 190:	81 50       	subi	r24, 0x01	; 1
 192:	87 ff       	sbrs	r24, 7
 194:	c7 cf       	rjmp	.-114    	; 0x124 <DHT_ReadRaw+0x92>
 196:	9f 5f       	subi	r25, 0xFF	; 255
 198:	95 30       	cpi	r25, 0x05	; 5
 19a:	18 f2       	brcs	.-122    	; 0x122 <DHT_ReadRaw+0x90>
 19c:	80 91 a2 00 	lds	r24, 0x00A2	; 0x8000a2 <__DHT_STATUS>
 1a0:	81 11       	cpse	r24, r1
 1a2:	18 c0       	rjmp	.+48     	; 0x1d4 <DHT_ReadRaw+0x142>
 1a4:	99 81       	ldd	r25, Y+1	; 0x01
 1a6:	8a 81       	ldd	r24, Y+2	; 0x02
 1a8:	89 0f       	add	r24, r25
 1aa:	9b 81       	ldd	r25, Y+3	; 0x03
 1ac:	89 0f       	add	r24, r25
 1ae:	9c 81       	ldd	r25, Y+4	; 0x04
 1b0:	89 0f       	add	r24, r25
 1b2:	9d 81       	ldd	r25, Y+5	; 0x05
 1b4:	89 17       	cp	r24, r25
 1b6:	21 f0       	breq	.+8      	; 0x1c0 <DHT_ReadRaw+0x12e>
 1b8:	83 e0       	ldi	r24, 0x03	; 3
 1ba:	80 93 a2 00 	sts	0x00A2, r24	; 0x8000a2 <__DHT_STATUS>
 1be:	0a c0       	rjmp	.+20     	; 0x1d4 <DHT_ReadRaw+0x142>
 1c0:	f8 01       	movw	r30, r16
 1c2:	ad 2d       	mov	r26, r13
 1c4:	be 2d       	mov	r27, r14
 1c6:	ce 01       	movw	r24, r28
 1c8:	05 96       	adiw	r24, 0x05	; 5
 1ca:	21 91       	ld	r18, Z+
 1cc:	2d 93       	st	X+, r18
 1ce:	e8 17       	cp	r30, r24
 1d0:	f9 07       	cpc	r31, r25
 1d2:	d9 f7       	brne	.-10     	; 0x1ca <DHT_ReadRaw+0x138>
 1d4:	0f 90       	pop	r0
 1d6:	0f 90       	pop	r0
 1d8:	0f 90       	pop	r0
 1da:	0f 90       	pop	r0
 1dc:	0f 90       	pop	r0
 1de:	df 91       	pop	r29
 1e0:	cf 91       	pop	r28
 1e2:	1f 91       	pop	r17
 1e4:	0f 91       	pop	r16
 1e6:	ff 90       	pop	r15
 1e8:	ef 90       	pop	r14
 1ea:	df 90       	pop	r13
 1ec:	bf 90       	pop	r11
 1ee:	af 90       	pop	r10
 1f0:	9f 90       	pop	r9
 1f2:	8f 90       	pop	r8
 1f4:	08 95       	ret

000001f6 <DHT_Read>:
 1f6:	8f 92       	push	r8
 1f8:	9f 92       	push	r9
 1fa:	af 92       	push	r10
 1fc:	bf 92       	push	r11
 1fe:	cf 92       	push	r12
 200:	df 92       	push	r13
 202:	ef 92       	push	r14
 204:	ff 92       	push	r15
 206:	0f 93       	push	r16
 208:	1f 93       	push	r17
 20a:	cf 93       	push	r28
 20c:	df 93       	push	r29
 20e:	00 d0       	rcall	.+0      	; 0x210 <DHT_Read+0x1a>
 210:	00 d0       	rcall	.+0      	; 0x212 <DHT_Read+0x1c>
 212:	cd b7       	in	r28, 0x3d	; 61
 214:	de b7       	in	r29, 0x3e	; 62
 216:	8c 01       	movw	r16, r24
 218:	7b 01       	movw	r14, r22
 21a:	19 82       	std	Y+1, r1	; 0x01
 21c:	1a 82       	std	Y+2, r1	; 0x02
 21e:	1b 82       	std	Y+3, r1	; 0x03
 220:	1c 82       	std	Y+4, r1	; 0x04
 222:	ce 01       	movw	r24, r28
 224:	01 96       	adiw	r24, 0x01	; 1
 226:	0e 94 49 00 	call	0x92	; 0x92 <DHT_ReadRaw>
 22a:	80 91 a2 00 	lds	r24, 0x00A2	; 0x8000a2 <__DHT_STATUS>
 22e:	81 11       	cpse	r24, r1
 230:	72 c0       	rjmp	.+228    	; 0x316 <DHT_Read+0x120>
 232:	8c 81       	ldd	r24, Y+4	; 0x04
 234:	6b 81       	ldd	r22, Y+3	; 0x03
 236:	7c 81       	ldd	r23, Y+4	; 0x04
 238:	76 27       	eor	r23, r22
 23a:	67 27       	eor	r22, r23
 23c:	76 27       	eor	r23, r22
 23e:	9b 81       	ldd	r25, Y+3	; 0x03
 240:	97 ff       	sbrs	r25, 7
 242:	0f c0       	rjmp	.+30     	; 0x262 <DHT_Read+0x6c>
 244:	9f 77       	andi	r25, 0x7F	; 127
 246:	68 2f       	mov	r22, r24
 248:	70 e0       	ldi	r23, 0x00	; 0
 24a:	79 2b       	or	r23, r25
 24c:	07 2e       	mov	r0, r23
 24e:	00 0c       	add	r0, r0
 250:	88 0b       	sbc	r24, r24
 252:	99 0b       	sbc	r25, r25
 254:	0e 94 e3 05 	call	0xbc6	; 0xbc6 <__floatsisf>
 258:	20 e0       	ldi	r18, 0x00	; 0
 25a:	30 e0       	ldi	r19, 0x00	; 0
 25c:	40 e2       	ldi	r20, 0x20	; 32
 25e:	51 ec       	ldi	r21, 0xC1	; 193
 260:	0a c0       	rjmp	.+20     	; 0x276 <DHT_Read+0x80>
 262:	07 2e       	mov	r0, r23
 264:	00 0c       	add	r0, r0
 266:	88 0b       	sbc	r24, r24
 268:	99 0b       	sbc	r25, r25
 26a:	0e 94 e3 05 	call	0xbc6	; 0xbc6 <__floatsisf>
 26e:	20 e0       	ldi	r18, 0x00	; 0
 270:	30 e0       	ldi	r19, 0x00	; 0
 272:	40 e2       	ldi	r20, 0x20	; 32
 274:	51 e4       	ldi	r21, 0x41	; 65
 276:	0e 94 39 05 	call	0xa72	; 0xa72 <__divsf3>
 27a:	f8 01       	movw	r30, r16
 27c:	60 83       	st	Z, r22
 27e:	71 83       	std	Z+1, r23	; 0x01
 280:	82 83       	std	Z+2, r24	; 0x02
 282:	93 83       	std	Z+3, r25	; 0x03
 284:	69 81       	ldd	r22, Y+1	; 0x01
 286:	7a 81       	ldd	r23, Y+2	; 0x02
 288:	76 27       	eor	r23, r22
 28a:	67 27       	eor	r22, r23
 28c:	76 27       	eor	r23, r22
 28e:	07 2e       	mov	r0, r23
 290:	00 0c       	add	r0, r0
 292:	88 0b       	sbc	r24, r24
 294:	99 0b       	sbc	r25, r25
 296:	0e 94 e3 05 	call	0xbc6	; 0xbc6 <__floatsisf>
 29a:	20 e0       	ldi	r18, 0x00	; 0
 29c:	30 e0       	ldi	r19, 0x00	; 0
 29e:	40 e2       	ldi	r20, 0x20	; 32
 2a0:	51 e4       	ldi	r21, 0x41	; 65
 2a2:	0e 94 39 05 	call	0xa72	; 0xa72 <__divsf3>
 2a6:	4b 01       	movw	r8, r22
 2a8:	5c 01       	movw	r10, r24
 2aa:	f7 01       	movw	r30, r14
 2ac:	60 83       	st	Z, r22
 2ae:	71 83       	std	Z+1, r23	; 0x01
 2b0:	82 83       	std	Z+2, r24	; 0x02
 2b2:	93 83       	std	Z+3, r25	; 0x03
 2b4:	f8 01       	movw	r30, r16
 2b6:	c0 80       	ld	r12, Z
 2b8:	d1 80       	ldd	r13, Z+1	; 0x01
 2ba:	e2 80       	ldd	r14, Z+2	; 0x02
 2bc:	f3 80       	ldd	r15, Z+3	; 0x03
 2be:	20 e0       	ldi	r18, 0x00	; 0
 2c0:	30 e0       	ldi	r19, 0x00	; 0
 2c2:	40 e2       	ldi	r20, 0x20	; 32
 2c4:	52 ec       	ldi	r21, 0xC2	; 194
 2c6:	c7 01       	movw	r24, r14
 2c8:	b6 01       	movw	r22, r12
 2ca:	0e 94 34 05 	call	0xa68	; 0xa68 <__cmpsf2>
 2ce:	87 fd       	sbrc	r24, 7
 2d0:	0a c0       	rjmp	.+20     	; 0x2e6 <DHT_Read+0xf0>
 2d2:	20 e0       	ldi	r18, 0x00	; 0
 2d4:	30 e0       	ldi	r19, 0x00	; 0
 2d6:	40 ea       	ldi	r20, 0xA0	; 160
 2d8:	52 e4       	ldi	r21, 0x42	; 66
 2da:	c7 01       	movw	r24, r14
 2dc:	b6 01       	movw	r22, r12
 2de:	0e 94 eb 06 	call	0xdd6	; 0xdd6 <__gesf2>
 2e2:	18 16       	cp	r1, r24
 2e4:	14 f4       	brge	.+4      	; 0x2ea <DHT_Read+0xf4>
 2e6:	82 e0       	ldi	r24, 0x02	; 2
 2e8:	14 c0       	rjmp	.+40     	; 0x312 <DHT_Read+0x11c>
 2ea:	20 e0       	ldi	r18, 0x00	; 0
 2ec:	30 e0       	ldi	r19, 0x00	; 0
 2ee:	a9 01       	movw	r20, r18
 2f0:	c5 01       	movw	r24, r10
 2f2:	b4 01       	movw	r22, r8
 2f4:	0e 94 34 05 	call	0xa68	; 0xa68 <__cmpsf2>
 2f8:	87 fd       	sbrc	r24, 7
 2fa:	0a c0       	rjmp	.+20     	; 0x310 <DHT_Read+0x11a>
 2fc:	20 e0       	ldi	r18, 0x00	; 0
 2fe:	30 e0       	ldi	r19, 0x00	; 0
 300:	48 ec       	ldi	r20, 0xC8	; 200
 302:	52 e4       	ldi	r21, 0x42	; 66
 304:	c5 01       	movw	r24, r10
 306:	b4 01       	movw	r22, r8
 308:	0e 94 eb 06 	call	0xdd6	; 0xdd6 <__gesf2>
 30c:	18 16       	cp	r1, r24
 30e:	1c f4       	brge	.+6      	; 0x316 <DHT_Read+0x120>
 310:	81 e0       	ldi	r24, 0x01	; 1
 312:	80 93 a2 00 	sts	0x00A2, r24	; 0x8000a2 <__DHT_STATUS>
 316:	0f 90       	pop	r0
 318:	0f 90       	pop	r0
 31a:	0f 90       	pop	r0
 31c:	0f 90       	pop	r0
 31e:	df 91       	pop	r29
 320:	cf 91       	pop	r28
 322:	1f 91       	pop	r17
 324:	0f 91       	pop	r16
 326:	ff 90       	pop	r15
 328:	ef 90       	pop	r14
 32a:	df 90       	pop	r13
 32c:	cf 90       	pop	r12
 32e:	bf 90       	pop	r11
 330:	af 90       	pop	r10
 332:	9f 90       	pop	r9
 334:	8f 90       	pop	r8
 336:	08 95       	ret

00000338 <spi_master_init>:
 338:	87 b3       	in	r24, 0x17	; 23
 33a:	88 6b       	ori	r24, 0xB8	; 184
 33c:	87 bb       	out	0x17, r24	; 23
 33e:	be 98       	cbi	0x17, 6	; 23
 340:	8d b1       	in	r24, 0x0d	; 13
 342:	80 65       	ori	r24, 0x50	; 80
 344:	8d b9       	out	0x0d, r24	; 13
 346:	c4 9a       	sbi	0x18, 4	; 24
 348:	c3 98       	cbi	0x18, 3	; 24
 34a:	08 95       	ret

0000034c <spi_Send_Receive>:
 34c:	8f b9       	out	0x0f, r24	; 15
 34e:	77 9b       	sbis	0x0e, 7	; 14
 350:	fe cf       	rjmp	.-4      	; 0x34e <spi_Send_Receive+0x2>
 352:	8f b1       	in	r24, 0x0f	; 15
 354:	08 95       	ret

00000356 <Uart_Init>:
 356:	89 9a       	sbi	0x11, 1	; 17
 358:	88 98       	cbi	0x11, 0	; 17
 35a:	10 bc       	out	0x20, r1	; 32
 35c:	87 e6       	ldi	r24, 0x67	; 103
 35e:	89 b9       	out	0x09, r24	; 9
 360:	8a b1       	in	r24, 0x0a	; 10
 362:	88 61       	ori	r24, 0x18	; 24
 364:	8a b9       	out	0x0a, r24	; 10
 366:	80 b5       	in	r24, 0x20	; 32
 368:	86 68       	ori	r24, 0x86	; 134
 36a:	80 bd       	out	0x20, r24	; 32
 36c:	08 95       	ret

0000036e <Uart_Transmit>:
 36e:	5d 9b       	sbis	0x0b, 5	; 11
 370:	fe cf       	rjmp	.-4      	; 0x36e <Uart_Transmit>
 372:	8c b9       	out	0x0c, r24	; 12
 374:	08 95       	ret

00000376 <Uart_Send_String>:
 376:	cf 93       	push	r28
 378:	df 93       	push	r29
 37a:	ec 01       	movw	r28, r24
 37c:	89 91       	ld	r24, Y+
 37e:	88 23       	and	r24, r24
 380:	19 f0       	breq	.+6      	; 0x388 <Uart_Send_String+0x12>
 382:	0e 94 b7 01 	call	0x36e	; 0x36e <Uart_Transmit>
 386:	fa cf       	rjmp	.-12     	; 0x37c <Uart_Send_String+0x6>
 388:	df 91       	pop	r29
 38a:	cf 91       	pop	r28
 38c:	08 95       	ret

0000038e <EnableExternalInterrupt0>:
 38e:	8a 98       	cbi	0x11, 2	; 17
 390:	8b b7       	in	r24, 0x3b	; 59
 392:	80 64       	ori	r24, 0x40	; 64
 394:	8b bf       	out	0x3b, r24	; 59
 396:	85 b7       	in	r24, 0x35	; 53
 398:	82 60       	ori	r24, 0x02	; 2
 39a:	85 bf       	out	0x35, r24	; 53
 39c:	78 94       	sei
 39e:	08 95       	ret

000003a0 <ReadWriteNRF>:
 3a0:	cf 92       	push	r12
 3a2:	df 92       	push	r13
 3a4:	ef 92       	push	r14
 3a6:	ff 92       	push	r15
 3a8:	0f 93       	push	r16
 3aa:	1f 93       	push	r17
 3ac:	cf 93       	push	r28
 3ae:	df 93       	push	r29
 3b0:	d8 2f       	mov	r29, r24
 3b2:	c6 2f       	mov	r28, r22
 3b4:	7a 01       	movw	r14, r20
 3b6:	c2 2e       	mov	r12, r18
 3b8:	f8 94       	cli
 3ba:	81 30       	cpi	r24, 0x01	; 1
 3bc:	29 f4       	brne	.+10     	; 0x3c8 <ReadWriteNRF+0x28>
 3be:	60 3a       	cpi	r22, 0xA0	; 160
 3c0:	19 f0       	breq	.+6      	; 0x3c8 <ReadWriteNRF+0x28>
 3c2:	61 3e       	cpi	r22, 0xE1	; 225
 3c4:	09 f0       	breq	.+2      	; 0x3c8 <ReadWriteNRF+0x28>
 3c6:	c0 5e       	subi	r28, 0xE0	; 224
 3c8:	85 e3       	ldi	r24, 0x35	; 53
 3ca:	8a 95       	dec	r24
 3cc:	f1 f7       	brne	.-4      	; 0x3ca <ReadWriteNRF+0x2a>
 3ce:	00 00       	nop
 3d0:	c4 98       	cbi	0x18, 4	; 24
 3d2:	e5 e3       	ldi	r30, 0x35	; 53
 3d4:	ea 95       	dec	r30
 3d6:	f1 f7       	brne	.-4      	; 0x3d4 <ReadWriteNRF+0x34>
 3d8:	00 00       	nop
 3da:	8c 2f       	mov	r24, r28
 3dc:	0e 94 a6 01 	call	0x34c	; 0x34c <spi_Send_Receive>
 3e0:	f5 e3       	ldi	r31, 0x35	; 53
 3e2:	fa 95       	dec	r31
 3e4:	f1 f7       	brne	.-4      	; 0x3e2 <ReadWriteNRF+0x42>
 3e6:	00 00       	nop
 3e8:	87 01       	movw	r16, r14
 3ea:	82 e8       	ldi	r24, 0x82	; 130
 3ec:	e8 2e       	mov	r14, r24
 3ee:	80 e0       	ldi	r24, 0x00	; 0
 3f0:	f8 2e       	mov	r15, r24
 3f2:	d1 2c       	mov	r13, r1
 3f4:	c7 01       	movw	r24, r14
 3f6:	82 58       	subi	r24, 0x82	; 130
 3f8:	90 40       	sbci	r25, 0x00	; 0
 3fa:	8c 15       	cp	r24, r12
 3fc:	9d 05       	cpc	r25, r13
 3fe:	c4 f4       	brge	.+48     	; 0x430 <__LOCK_REGION_LENGTH__+0x30>
 400:	d1 11       	cpse	r29, r1
 402:	08 c0       	rjmp	.+16     	; 0x414 <__LOCK_REGION_LENGTH__+0x14>
 404:	c0 3a       	cpi	r28, 0xA0	; 160
 406:	31 f0       	breq	.+12     	; 0x414 <__LOCK_REGION_LENGTH__+0x14>
 408:	8f ef       	ldi	r24, 0xFF	; 255
 40a:	0e 94 a6 01 	call	0x34c	; 0x34c <spi_Send_Receive>
 40e:	f7 01       	movw	r30, r14
 410:	80 83       	st	Z, r24
 412:	04 c0       	rjmp	.+8      	; 0x41c <__LOCK_REGION_LENGTH__+0x1c>
 414:	f8 01       	movw	r30, r16
 416:	80 81       	ld	r24, Z
 418:	0e 94 a6 01 	call	0x34c	; 0x34c <spi_Send_Receive>
 41c:	f5 e3       	ldi	r31, 0x35	; 53
 41e:	fa 95       	dec	r31
 420:	f1 f7       	brne	.-4      	; 0x41e <__LOCK_REGION_LENGTH__+0x1e>
 422:	00 00       	nop
 424:	8f ef       	ldi	r24, 0xFF	; 255
 426:	e8 1a       	sub	r14, r24
 428:	f8 0a       	sbc	r15, r24
 42a:	0f 5f       	subi	r16, 0xFF	; 255
 42c:	1f 4f       	sbci	r17, 0xFF	; 255
 42e:	e2 cf       	rjmp	.-60     	; 0x3f4 <ReadWriteNRF+0x54>
 430:	c4 9a       	sbi	0x18, 4	; 24
 432:	78 94       	sei
 434:	82 e8       	ldi	r24, 0x82	; 130
 436:	90 e0       	ldi	r25, 0x00	; 0
 438:	df 91       	pop	r29
 43a:	cf 91       	pop	r28
 43c:	1f 91       	pop	r17
 43e:	0f 91       	pop	r16
 440:	ff 90       	pop	r15
 442:	ef 90       	pop	r14
 444:	df 90       	pop	r13
 446:	cf 90       	pop	r12
 448:	08 95       	ret

0000044a <Nrf24_init>:
 44a:	bf 92       	push	r11
 44c:	cf 92       	push	r12
 44e:	df 92       	push	r13
 450:	ef 92       	push	r14
 452:	ff 92       	push	r15
 454:	0f 93       	push	r16
 456:	1f 93       	push	r17
 458:	cf 93       	push	r28
 45a:	df 93       	push	r29
 45c:	00 d0       	rcall	.+0      	; 0x45e <Nrf24_init+0x14>
 45e:	00 d0       	rcall	.+0      	; 0x460 <__stack+0x1>
 460:	1f 92       	push	r1
 462:	cd b7       	in	r28, 0x3d	; 61
 464:	de b7       	in	r29, 0x3e	; 62
 466:	18 2f       	mov	r17, r24
 468:	6b 01       	movw	r12, r22
 46a:	7a 01       	movw	r14, r20
 46c:	b2 2e       	mov	r11, r18
 46e:	2f ef       	ldi	r18, 0xFF	; 255
 470:	81 ee       	ldi	r24, 0xE1	; 225
 472:	94 e0       	ldi	r25, 0x04	; 4
 474:	21 50       	subi	r18, 0x01	; 1
 476:	80 40       	sbci	r24, 0x00	; 0
 478:	90 40       	sbci	r25, 0x00	; 0
 47a:	e1 f7       	brne	.-8      	; 0x474 <__stack+0x15>
 47c:	00 c0       	rjmp	.+0      	; 0x47e <__stack+0x1f>
 47e:	00 00       	nop
 480:	01 e0       	ldi	r16, 0x01	; 1
 482:	01 0f       	add	r16, r17
 484:	09 83       	std	Y+1, r16	; 0x01
 486:	21 e0       	ldi	r18, 0x01	; 1
 488:	ae 01       	movw	r20, r28
 48a:	4f 5f       	subi	r20, 0xFF	; 255
 48c:	5f 4f       	sbci	r21, 0xFF	; 255
 48e:	61 e0       	ldi	r22, 0x01	; 1
 490:	81 e0       	ldi	r24, 0x01	; 1
 492:	0e 94 d0 01 	call	0x3a0	; 0x3a0 <ReadWriteNRF>
 496:	8f e2       	ldi	r24, 0x2F	; 47
 498:	89 83       	std	Y+1, r24	; 0x01
 49a:	21 e0       	ldi	r18, 0x01	; 1
 49c:	ae 01       	movw	r20, r28
 49e:	4f 5f       	subi	r20, 0xFF	; 255
 4a0:	5f 4f       	sbci	r21, 0xFF	; 255
 4a2:	64 e0       	ldi	r22, 0x04	; 4
 4a4:	81 e0       	ldi	r24, 0x01	; 1
 4a6:	0e 94 d0 01 	call	0x3a0	; 0x3a0 <ReadWriteNRF>
 4aa:	09 83       	std	Y+1, r16	; 0x01
 4ac:	21 e0       	ldi	r18, 0x01	; 1
 4ae:	ae 01       	movw	r20, r28
 4b0:	4f 5f       	subi	r20, 0xFF	; 255
 4b2:	5f 4f       	sbci	r21, 0xFF	; 255
 4b4:	62 e0       	ldi	r22, 0x02	; 2
 4b6:	81 e0       	ldi	r24, 0x01	; 1
 4b8:	0e 94 d0 01 	call	0x3a0	; 0x3a0 <ReadWriteNRF>
 4bc:	83 e0       	ldi	r24, 0x03	; 3
 4be:	89 83       	std	Y+1, r24	; 0x01
 4c0:	21 e0       	ldi	r18, 0x01	; 1
 4c2:	ae 01       	movw	r20, r28
 4c4:	4f 5f       	subi	r20, 0xFF	; 255
 4c6:	5f 4f       	sbci	r21, 0xFF	; 255
 4c8:	63 e0       	ldi	r22, 0x03	; 3
 4ca:	81 e0       	ldi	r24, 0x01	; 1
 4cc:	0e 94 d0 01 	call	0x3a0	; 0x3a0 <ReadWriteNRF>
 4d0:	8c e6       	ldi	r24, 0x6C	; 108
 4d2:	89 83       	std	Y+1, r24	; 0x01
 4d4:	21 e0       	ldi	r18, 0x01	; 1
 4d6:	ae 01       	movw	r20, r28
 4d8:	4f 5f       	subi	r20, 0xFF	; 255
 4da:	5f 4f       	sbci	r21, 0xFF	; 255
 4dc:	65 e0       	ldi	r22, 0x05	; 5
 4de:	81 e0       	ldi	r24, 0x01	; 1
 4e0:	0e 94 d0 01 	call	0x3a0	; 0x3a0 <ReadWriteNRF>
 4e4:	87 e0       	ldi	r24, 0x07	; 7
 4e6:	89 83       	std	Y+1, r24	; 0x01
 4e8:	21 e0       	ldi	r18, 0x01	; 1
 4ea:	ae 01       	movw	r20, r28
 4ec:	4f 5f       	subi	r20, 0xFF	; 255
 4ee:	5f 4f       	sbci	r21, 0xFF	; 255
 4f0:	66 e0       	ldi	r22, 0x06	; 6
 4f2:	81 e0       	ldi	r24, 0x01	; 1
 4f4:	0e 94 d0 01 	call	0x3a0	; 0x3a0 <ReadWriteNRF>
 4f8:	85 e0       	ldi	r24, 0x05	; 5
 4fa:	89 83       	std	Y+1, r24	; 0x01
 4fc:	12 30       	cpi	r17, 0x02	; 2
 4fe:	09 f4       	brne	.+2      	; 0x502 <__stack+0xa3>
 500:	43 c0       	rjmp	.+134    	; 0x588 <__stack+0x129>
 502:	b8 f4       	brcc	.+46     	; 0x532 <__stack+0xd3>
 504:	11 23       	and	r17, r17
 506:	71 f1       	breq	.+92     	; 0x564 <__stack+0x105>
 508:	11 30       	cpi	r17, 0x01	; 1
 50a:	09 f0       	breq	.+2      	; 0x50e <__stack+0xaf>
 50c:	75 c0       	rjmp	.+234    	; 0x5f8 <__stack+0x199>
 50e:	25 e0       	ldi	r18, 0x05	; 5
 510:	a6 01       	movw	r20, r12
 512:	6b e0       	ldi	r22, 0x0B	; 11
 514:	81 e0       	ldi	r24, 0x01	; 1
 516:	0e 94 d0 01 	call	0x3a0	; 0x3a0 <ReadWriteNRF>
 51a:	25 e0       	ldi	r18, 0x05	; 5
 51c:	a7 01       	movw	r20, r14
 51e:	60 e1       	ldi	r22, 0x10	; 16
 520:	81 e0       	ldi	r24, 0x01	; 1
 522:	0e 94 d0 01 	call	0x3a0	; 0x3a0 <ReadWriteNRF>
 526:	21 e0       	ldi	r18, 0x01	; 1
 528:	ae 01       	movw	r20, r28
 52a:	4f 5f       	subi	r20, 0xFF	; 255
 52c:	5f 4f       	sbci	r21, 0xFF	; 255
 52e:	62 e1       	ldi	r22, 0x12	; 18
 530:	60 c0       	rjmp	.+192    	; 0x5f2 <__stack+0x193>
 532:	14 30       	cpi	r17, 0x04	; 4
 534:	09 f4       	brne	.+2      	; 0x538 <__stack+0xd9>
 536:	4c c0       	rjmp	.+152    	; 0x5d0 <__stack+0x171>
 538:	c8 f1       	brcs	.+114    	; 0x5ac <__stack+0x14d>
 53a:	15 30       	cpi	r17, 0x05	; 5
 53c:	09 f0       	breq	.+2      	; 0x540 <__stack+0xe1>
 53e:	5c c0       	rjmp	.+184    	; 0x5f8 <__stack+0x199>
 540:	25 e0       	ldi	r18, 0x05	; 5
 542:	a6 01       	movw	r20, r12
 544:	6f e0       	ldi	r22, 0x0F	; 15
 546:	81 e0       	ldi	r24, 0x01	; 1
 548:	0e 94 d0 01 	call	0x3a0	; 0x3a0 <ReadWriteNRF>
 54c:	25 e0       	ldi	r18, 0x05	; 5
 54e:	a7 01       	movw	r20, r14
 550:	60 e1       	ldi	r22, 0x10	; 16
 552:	81 e0       	ldi	r24, 0x01	; 1
 554:	0e 94 d0 01 	call	0x3a0	; 0x3a0 <ReadWriteNRF>
 558:	21 e0       	ldi	r18, 0x01	; 1
 55a:	ae 01       	movw	r20, r28
 55c:	4f 5f       	subi	r20, 0xFF	; 255
 55e:	5f 4f       	sbci	r21, 0xFF	; 255
 560:	66 e1       	ldi	r22, 0x16	; 22
 562:	47 c0       	rjmp	.+142    	; 0x5f2 <__stack+0x193>
 564:	25 e0       	ldi	r18, 0x05	; 5
 566:	a6 01       	movw	r20, r12
 568:	6a e0       	ldi	r22, 0x0A	; 10
 56a:	81 e0       	ldi	r24, 0x01	; 1
 56c:	0e 94 d0 01 	call	0x3a0	; 0x3a0 <ReadWriteNRF>
 570:	25 e0       	ldi	r18, 0x05	; 5
 572:	a7 01       	movw	r20, r14
 574:	60 e1       	ldi	r22, 0x10	; 16
 576:	81 e0       	ldi	r24, 0x01	; 1
 578:	0e 94 d0 01 	call	0x3a0	; 0x3a0 <ReadWriteNRF>
 57c:	21 e0       	ldi	r18, 0x01	; 1
 57e:	ae 01       	movw	r20, r28
 580:	4f 5f       	subi	r20, 0xFF	; 255
 582:	5f 4f       	sbci	r21, 0xFF	; 255
 584:	61 e1       	ldi	r22, 0x11	; 17
 586:	35 c0       	rjmp	.+106    	; 0x5f2 <__stack+0x193>
 588:	25 e0       	ldi	r18, 0x05	; 5
 58a:	a6 01       	movw	r20, r12
 58c:	6c e0       	ldi	r22, 0x0C	; 12
 58e:	81 e0       	ldi	r24, 0x01	; 1
 590:	0e 94 d0 01 	call	0x3a0	; 0x3a0 <ReadWriteNRF>
 594:	25 e0       	ldi	r18, 0x05	; 5
 596:	a7 01       	movw	r20, r14
 598:	60 e1       	ldi	r22, 0x10	; 16
 59a:	81 e0       	ldi	r24, 0x01	; 1
 59c:	0e 94 d0 01 	call	0x3a0	; 0x3a0 <ReadWriteNRF>
 5a0:	21 e0       	ldi	r18, 0x01	; 1
 5a2:	ae 01       	movw	r20, r28
 5a4:	4f 5f       	subi	r20, 0xFF	; 255
 5a6:	5f 4f       	sbci	r21, 0xFF	; 255
 5a8:	63 e1       	ldi	r22, 0x13	; 19
 5aa:	23 c0       	rjmp	.+70     	; 0x5f2 <__stack+0x193>
 5ac:	25 e0       	ldi	r18, 0x05	; 5
 5ae:	a6 01       	movw	r20, r12
 5b0:	6d e0       	ldi	r22, 0x0D	; 13
 5b2:	81 e0       	ldi	r24, 0x01	; 1
 5b4:	0e 94 d0 01 	call	0x3a0	; 0x3a0 <ReadWriteNRF>
 5b8:	25 e0       	ldi	r18, 0x05	; 5
 5ba:	a7 01       	movw	r20, r14
 5bc:	60 e1       	ldi	r22, 0x10	; 16
 5be:	81 e0       	ldi	r24, 0x01	; 1
 5c0:	0e 94 d0 01 	call	0x3a0	; 0x3a0 <ReadWriteNRF>
 5c4:	21 e0       	ldi	r18, 0x01	; 1
 5c6:	ae 01       	movw	r20, r28
 5c8:	4f 5f       	subi	r20, 0xFF	; 255
 5ca:	5f 4f       	sbci	r21, 0xFF	; 255
 5cc:	64 e1       	ldi	r22, 0x14	; 20
 5ce:	11 c0       	rjmp	.+34     	; 0x5f2 <__stack+0x193>
 5d0:	25 e0       	ldi	r18, 0x05	; 5
 5d2:	a6 01       	movw	r20, r12
 5d4:	6e e0       	ldi	r22, 0x0E	; 14
 5d6:	81 e0       	ldi	r24, 0x01	; 1
 5d8:	0e 94 d0 01 	call	0x3a0	; 0x3a0 <ReadWriteNRF>
 5dc:	25 e0       	ldi	r18, 0x05	; 5
 5de:	a7 01       	movw	r20, r14
 5e0:	60 e1       	ldi	r22, 0x10	; 16
 5e2:	81 e0       	ldi	r24, 0x01	; 1
 5e4:	0e 94 d0 01 	call	0x3a0	; 0x3a0 <ReadWriteNRF>
 5e8:	21 e0       	ldi	r18, 0x01	; 1
 5ea:	ae 01       	movw	r20, r28
 5ec:	4f 5f       	subi	r20, 0xFF	; 255
 5ee:	5f 4f       	sbci	r21, 0xFF	; 255
 5f0:	65 e1       	ldi	r22, 0x15	; 21
 5f2:	81 e0       	ldi	r24, 0x01	; 1
 5f4:	0e 94 d0 01 	call	0x3a0	; 0x3a0 <ReadWriteNRF>
 5f8:	24 e5       	ldi	r18, 0x54	; 84
 5fa:	b2 12       	cpse	r11, r18
 5fc:	02 c0       	rjmp	.+4      	; 0x602 <__stack+0x1a3>
 5fe:	8e e1       	ldi	r24, 0x1E	; 30
 600:	01 c0       	rjmp	.+2      	; 0x604 <__stack+0x1a5>
 602:	8f e1       	ldi	r24, 0x1F	; 31
 604:	89 83       	std	Y+1, r24	; 0x01
 606:	21 e0       	ldi	r18, 0x01	; 1
 608:	ae 01       	movw	r20, r28
 60a:	4f 5f       	subi	r20, 0xFF	; 255
 60c:	5f 4f       	sbci	r21, 0xFF	; 255
 60e:	60 e0       	ldi	r22, 0x00	; 0
 610:	81 e0       	ldi	r24, 0x01	; 1
 612:	0e 94 d0 01 	call	0x3a0	; 0x3a0 <ReadWriteNRF>
 616:	8f ef       	ldi	r24, 0xFF	; 255
 618:	91 ee       	ldi	r25, 0xE1	; 225
 61a:	24 e0       	ldi	r18, 0x04	; 4
 61c:	81 50       	subi	r24, 0x01	; 1
 61e:	90 40       	sbci	r25, 0x00	; 0
 620:	20 40       	sbci	r18, 0x00	; 0
 622:	e1 f7       	brne	.-8      	; 0x61c <__stack+0x1bd>
 624:	00 c0       	rjmp	.+0      	; 0x626 <__stack+0x1c7>
 626:	00 00       	nop
 628:	0f 90       	pop	r0
 62a:	0f 90       	pop	r0
 62c:	0f 90       	pop	r0
 62e:	0f 90       	pop	r0
 630:	0f 90       	pop	r0
 632:	df 91       	pop	r29
 634:	cf 91       	pop	r28
 636:	1f 91       	pop	r17
 638:	0f 91       	pop	r16
 63a:	ff 90       	pop	r15
 63c:	ef 90       	pop	r14
 63e:	df 90       	pop	r13
 640:	cf 90       	pop	r12
 642:	bf 90       	pop	r11
 644:	08 95       	ret

00000646 <resetNrf>:
 646:	85 e3       	ldi	r24, 0x35	; 53
 648:	8a 95       	dec	r24
 64a:	f1 f7       	brne	.-4      	; 0x648 <resetNrf+0x2>
 64c:	00 00       	nop
 64e:	c4 98       	cbi	0x18, 4	; 24
 650:	85 e3       	ldi	r24, 0x35	; 53
 652:	8a 95       	dec	r24
 654:	f1 f7       	brne	.-4      	; 0x652 <resetNrf+0xc>
 656:	00 00       	nop
 658:	87 e2       	ldi	r24, 0x27	; 39
 65a:	0e 94 a6 01 	call	0x34c	; 0x34c <spi_Send_Receive>
 65e:	85 e3       	ldi	r24, 0x35	; 53
 660:	8a 95       	dec	r24
 662:	f1 f7       	brne	.-4      	; 0x660 <resetNrf+0x1a>
 664:	00 00       	nop
 666:	80 e7       	ldi	r24, 0x70	; 112
 668:	0e 94 a6 01 	call	0x34c	; 0x34c <spi_Send_Receive>
 66c:	85 e3       	ldi	r24, 0x35	; 53
 66e:	8a 95       	dec	r24
 670:	f1 f7       	brne	.-4      	; 0x66e <resetNrf+0x28>
 672:	00 00       	nop
 674:	c4 9a       	sbi	0x18, 4	; 24
 676:	08 95       	ret

00000678 <transmit_data>:
 678:	cf 93       	push	r28
 67a:	df 93       	push	r29
 67c:	ec 01       	movw	r28, r24
 67e:	20 e0       	ldi	r18, 0x00	; 0
 680:	ac 01       	movw	r20, r24
 682:	61 ee       	ldi	r22, 0xE1	; 225
 684:	80 e0       	ldi	r24, 0x00	; 0
 686:	0e 94 d0 01 	call	0x3a0	; 0x3a0 <ReadWriteNRF>
 68a:	25 e0       	ldi	r18, 0x05	; 5
 68c:	ae 01       	movw	r20, r28
 68e:	60 ea       	ldi	r22, 0xA0	; 160
 690:	80 e0       	ldi	r24, 0x00	; 0
 692:	0e 94 d0 01 	call	0x3a0	; 0x3a0 <ReadWriteNRF>
 696:	8f e3       	ldi	r24, 0x3F	; 63
 698:	9c e9       	ldi	r25, 0x9C	; 156
 69a:	01 97       	sbiw	r24, 0x01	; 1
 69c:	f1 f7       	brne	.-4      	; 0x69a <transmit_data+0x22>
 69e:	00 c0       	rjmp	.+0      	; 0x6a0 <transmit_data+0x28>
 6a0:	00 00       	nop
 6a2:	c3 9a       	sbi	0x18, 3	; 24
 6a4:	87 ec       	ldi	r24, 0xC7	; 199
 6a6:	90 e0       	ldi	r25, 0x00	; 0
 6a8:	01 97       	sbiw	r24, 0x01	; 1
 6aa:	f1 f7       	brne	.-4      	; 0x6a8 <transmit_data+0x30>
 6ac:	00 c0       	rjmp	.+0      	; 0x6ae <transmit_data+0x36>
 6ae:	00 00       	nop
 6b0:	c3 98       	cbi	0x18, 3	; 24
 6b2:	95 e3       	ldi	r25, 0x35	; 53
 6b4:	9a 95       	dec	r25
 6b6:	f1 f7       	brne	.-4      	; 0x6b4 <transmit_data+0x3c>
 6b8:	00 00       	nop
 6ba:	df 91       	pop	r29
 6bc:	cf 91       	pop	r28
 6be:	0c 94 23 03 	jmp	0x646	; 0x646 <resetNrf>

000006c2 <receive_data>:
 6c2:	78 94       	sei
 6c4:	c3 9a       	sbi	0x18, 3	; 24
 6c6:	2f ef       	ldi	r18, 0xFF	; 255
 6c8:	89 e6       	ldi	r24, 0x69	; 105
 6ca:	98 e1       	ldi	r25, 0x18	; 24
 6cc:	21 50       	subi	r18, 0x01	; 1
 6ce:	80 40       	sbci	r24, 0x00	; 0
 6d0:	90 40       	sbci	r25, 0x00	; 0
 6d2:	e1 f7       	brne	.-8      	; 0x6cc <receive_data+0xa>
 6d4:	00 c0       	rjmp	.+0      	; 0x6d6 <receive_data+0x14>
 6d6:	00 00       	nop
 6d8:	c3 98       	cbi	0x18, 3	; 24
 6da:	f8 94       	cli
 6dc:	0c 94 23 03 	jmp	0x646	; 0x646 <resetNrf>

000006e0 <changeNrfToRX>:
 6e0:	cf 93       	push	r28
 6e2:	df 93       	push	r29
 6e4:	1f 92       	push	r1
 6e6:	cd b7       	in	r28, 0x3d	; 61
 6e8:	de b7       	in	r29, 0x3e	; 62
 6ea:	8f e1       	ldi	r24, 0x1F	; 31
 6ec:	89 83       	std	Y+1, r24	; 0x01
 6ee:	21 e0       	ldi	r18, 0x01	; 1
 6f0:	ae 01       	movw	r20, r28
 6f2:	4f 5f       	subi	r20, 0xFF	; 255
 6f4:	5f 4f       	sbci	r21, 0xFF	; 255
 6f6:	60 e0       	ldi	r22, 0x00	; 0
 6f8:	81 e0       	ldi	r24, 0x01	; 1
 6fa:	0e 94 d0 01 	call	0x3a0	; 0x3a0 <ReadWriteNRF>
 6fe:	2f ef       	ldi	r18, 0xFF	; 255
 700:	81 ee       	ldi	r24, 0xE1	; 225
 702:	94 e0       	ldi	r25, 0x04	; 4
 704:	21 50       	subi	r18, 0x01	; 1
 706:	80 40       	sbci	r24, 0x00	; 0
 708:	90 40       	sbci	r25, 0x00	; 0
 70a:	e1 f7       	brne	.-8      	; 0x704 <changeNrfToRX+0x24>
 70c:	00 c0       	rjmp	.+0      	; 0x70e <changeNrfToRX+0x2e>
 70e:	00 00       	nop
 710:	0f 90       	pop	r0
 712:	df 91       	pop	r29
 714:	cf 91       	pop	r28
 716:	08 95       	ret

00000718 <changeNrfToTX>:
 718:	cf 93       	push	r28
 71a:	df 93       	push	r29
 71c:	1f 92       	push	r1
 71e:	cd b7       	in	r28, 0x3d	; 61
 720:	de b7       	in	r29, 0x3e	; 62
 722:	8e e1       	ldi	r24, 0x1E	; 30
 724:	89 83       	std	Y+1, r24	; 0x01
 726:	21 e0       	ldi	r18, 0x01	; 1
 728:	ae 01       	movw	r20, r28
 72a:	4f 5f       	subi	r20, 0xFF	; 255
 72c:	5f 4f       	sbci	r21, 0xFF	; 255
 72e:	60 e0       	ldi	r22, 0x00	; 0
 730:	81 e0       	ldi	r24, 0x01	; 1
 732:	0e 94 d0 01 	call	0x3a0	; 0x3a0 <ReadWriteNRF>
 736:	2f ef       	ldi	r18, 0xFF	; 255
 738:	81 ee       	ldi	r24, 0xE1	; 225
 73a:	94 e0       	ldi	r25, 0x04	; 4
 73c:	21 50       	subi	r18, 0x01	; 1
 73e:	80 40       	sbci	r24, 0x00	; 0
 740:	90 40       	sbci	r25, 0x00	; 0
 742:	e1 f7       	brne	.-8      	; 0x73c <changeNrfToTX+0x24>
 744:	00 c0       	rjmp	.+0      	; 0x746 <changeNrfToTX+0x2e>
 746:	00 00       	nop
 748:	0f 90       	pop	r0
 74a:	df 91       	pop	r29
 74c:	cf 91       	pop	r28
 74e:	08 95       	ret

00000750 <main>:
 750:	cf 93       	push	r28
 752:	df 93       	push	r29
 754:	cd b7       	in	r28, 0x3d	; 61
 756:	de b7       	in	r29, 0x3e	; 62
 758:	2a 97       	sbiw	r28, 0x0a	; 10
 75a:	0f b6       	in	r0, 0x3f	; 63
 75c:	f8 94       	cli
 75e:	de bf       	out	0x3e, r29	; 62
 760:	0f be       	out	0x3f, r0	; 63
 762:	cd bf       	out	0x3d, r28	; 61
 764:	b8 9a       	sbi	0x17, 0	; 23
 766:	c0 9a       	sbi	0x18, 0	; 24
 768:	0e 94 ab 01 	call	0x356	; 0x356 <Uart_Init>
 76c:	0e 94 9c 01 	call	0x338	; 0x338 <spi_master_init>
 770:	85 e0       	ldi	r24, 0x05	; 5
 772:	e0 e6       	ldi	r30, 0x60	; 96
 774:	f0 e0       	ldi	r31, 0x00	; 0
 776:	de 01       	movw	r26, r28
 778:	16 96       	adiw	r26, 0x06	; 6
 77a:	01 90       	ld	r0, Z+
 77c:	0d 92       	st	X+, r0
 77e:	8a 95       	dec	r24
 780:	e1 f7       	brne	.-8      	; 0x77a <main+0x2a>
 782:	85 e0       	ldi	r24, 0x05	; 5
 784:	e0 e6       	ldi	r30, 0x60	; 96
 786:	f0 e0       	ldi	r31, 0x00	; 0
 788:	de 01       	movw	r26, r28
 78a:	11 96       	adiw	r26, 0x01	; 1
 78c:	01 90       	ld	r0, Z+
 78e:	0d 92       	st	X+, r0
 790:	8a 95       	dec	r24
 792:	e1 f7       	brne	.-8      	; 0x78c <main+0x3c>
 794:	22 e5       	ldi	r18, 0x52	; 82
 796:	ae 01       	movw	r20, r28
 798:	4f 5f       	subi	r20, 0xFF	; 255
 79a:	5f 4f       	sbci	r21, 0xFF	; 255
 79c:	be 01       	movw	r22, r28
 79e:	6a 5f       	subi	r22, 0xFA	; 250
 7a0:	7f 4f       	sbci	r23, 0xFF	; 255
 7a2:	80 e0       	ldi	r24, 0x00	; 0
 7a4:	0e 94 25 02 	call	0x44a	; 0x44a <Nrf24_init>
 7a8:	0e 94 c7 01 	call	0x38e	; 0x38e <EnableExternalInterrupt0>
 7ac:	0e 94 23 03 	call	0x646	; 0x646 <resetNrf>
 7b0:	89 e7       	ldi	r24, 0x79	; 121
 7b2:	90 e0       	ldi	r25, 0x00	; 0
 7b4:	0e 94 bb 01 	call	0x376	; 0x376 <Uart_Send_String>
 7b8:	0e 94 61 03 	call	0x6c2	; 0x6c2 <receive_data>
 7bc:	fd cf       	rjmp	.-6      	; 0x7b8 <main+0x68>

000007be <SendAnswer>:
 7be:	cf 93       	push	r28
 7c0:	df 93       	push	r29
 7c2:	ec 01       	movw	r28, r24
 7c4:	0e 94 23 03 	call	0x646	; 0x646 <resetNrf>
 7c8:	0e 94 8c 03 	call	0x718	; 0x718 <changeNrfToTX>
 7cc:	ce 01       	movw	r24, r28
 7ce:	0e 94 3c 03 	call	0x678	; 0x678 <transmit_data>
 7d2:	8f e8       	ldi	r24, 0x8F	; 143
 7d4:	91 e0       	ldi	r25, 0x01	; 1
 7d6:	01 97       	sbiw	r24, 0x01	; 1
 7d8:	f1 f7       	brne	.-4      	; 0x7d6 <SendAnswer+0x18>
 7da:	00 c0       	rjmp	.+0      	; 0x7dc <SendAnswer+0x1e>
 7dc:	00 00       	nop
 7de:	df 91       	pop	r29
 7e0:	cf 91       	pop	r28
 7e2:	0c 94 70 03 	jmp	0x6e0	; 0x6e0 <changeNrfToRX>

000007e6 <convertToIntArray>:
 7e6:	8f 92       	push	r8
 7e8:	9f 92       	push	r9
 7ea:	af 92       	push	r10
 7ec:	bf 92       	push	r11
 7ee:	cf 92       	push	r12
 7f0:	df 92       	push	r13
 7f2:	ef 92       	push	r14
 7f4:	ff 92       	push	r15
 7f6:	cf 93       	push	r28
 7f8:	df 93       	push	r29
 7fa:	eb 01       	movw	r28, r22
 7fc:	fc 01       	movw	r30, r24
 7fe:	80 80       	ld	r8, Z
 800:	91 80       	ldd	r9, Z+1	; 0x01
 802:	a2 80       	ldd	r10, Z+2	; 0x02
 804:	b3 80       	ldd	r11, Z+3	; 0x03
 806:	c5 01       	movw	r24, r10
 808:	b4 01       	movw	r22, r8
 80a:	0e 94 1e 06 	call	0xc3c	; 0xc3c <floor>
 80e:	0e 94 ab 05 	call	0xb56	; 0xb56 <__fixsfsi>
 812:	6b 01       	movw	r12, r22
 814:	7c 01       	movw	r14, r24
 816:	79 83       	std	Y+1, r23	; 0x01
 818:	68 83       	st	Y, r22
 81a:	20 e0       	ldi	r18, 0x00	; 0
 81c:	30 e0       	ldi	r19, 0x00	; 0
 81e:	48 ec       	ldi	r20, 0xC8	; 200
 820:	52 e4       	ldi	r21, 0x42	; 66
 822:	c5 01       	movw	r24, r10
 824:	b4 01       	movw	r22, r8
 826:	0e 94 f0 06 	call	0xde0	; 0xde0 <__mulsf3>
 82a:	4b 01       	movw	r8, r22
 82c:	5c 01       	movw	r10, r24
 82e:	b6 01       	movw	r22, r12
 830:	dd 0c       	add	r13, r13
 832:	88 0b       	sbc	r24, r24
 834:	99 0b       	sbc	r25, r25
 836:	0e 94 e3 05 	call	0xbc6	; 0xbc6 <__floatsisf>
 83a:	20 e0       	ldi	r18, 0x00	; 0
 83c:	30 e0       	ldi	r19, 0x00	; 0
 83e:	48 ec       	ldi	r20, 0xC8	; 200
 840:	52 e4       	ldi	r21, 0x42	; 66
 842:	0e 94 f0 06 	call	0xde0	; 0xde0 <__mulsf3>
 846:	9b 01       	movw	r18, r22
 848:	ac 01       	movw	r20, r24
 84a:	c5 01       	movw	r24, r10
 84c:	b4 01       	movw	r22, r8
 84e:	0e 94 c7 04 	call	0x98e	; 0x98e <__subsf3>
 852:	0e 94 ab 05 	call	0xb56	; 0xb56 <__fixsfsi>
 856:	7b 83       	std	Y+3, r23	; 0x03
 858:	6a 83       	std	Y+2, r22	; 0x02
 85a:	df 91       	pop	r29
 85c:	cf 91       	pop	r28
 85e:	ff 90       	pop	r15
 860:	ef 90       	pop	r14
 862:	df 90       	pop	r13
 864:	cf 90       	pop	r12
 866:	bf 90       	pop	r11
 868:	af 90       	pop	r10
 86a:	9f 90       	pop	r9
 86c:	8f 90       	pop	r8
 86e:	08 95       	ret

00000870 <SendDHTData>:
 870:	cf 93       	push	r28
 872:	df 93       	push	r29
 874:	cd b7       	in	r28, 0x3d	; 61
 876:	de b7       	in	r29, 0x3e	; 62
 878:	65 97       	sbiw	r28, 0x15	; 21
 87a:	0f b6       	in	r0, 0x3f	; 63
 87c:	f8 94       	cli
 87e:	de bf       	out	0x3e, r29	; 62
 880:	0f be       	out	0x3f, r0	; 63
 882:	cd bf       	out	0x3d, r28	; 61
 884:	1a 8a       	std	Y+18, r1	; 0x12
 886:	1b 8a       	std	Y+19, r1	; 0x13
 888:	1c 8a       	std	Y+20, r1	; 0x14
 88a:	1d 8a       	std	Y+21, r1	; 0x15
 88c:	1e 86       	std	Y+14, r1	; 0x0e
 88e:	1f 86       	std	Y+15, r1	; 0x0f
 890:	18 8a       	std	Y+16, r1	; 0x10
 892:	19 8a       	std	Y+17, r1	; 0x11
 894:	be 01       	movw	r22, r28
 896:	62 5f       	subi	r22, 0xF2	; 242
 898:	7f 4f       	sbci	r23, 0xFF	; 255
 89a:	ce 01       	movw	r24, r28
 89c:	42 96       	adiw	r24, 0x12	; 18
 89e:	0e 94 fb 00 	call	0x1f6	; 0x1f6 <DHT_Read>
 8a2:	be 01       	movw	r22, r28
 8a4:	66 5f       	subi	r22, 0xF6	; 246
 8a6:	7f 4f       	sbci	r23, 0xFF	; 255
 8a8:	ce 01       	movw	r24, r28
 8aa:	42 96       	adiw	r24, 0x12	; 18
 8ac:	0e 94 f3 03 	call	0x7e6	; 0x7e6 <convertToIntArray>
 8b0:	be 01       	movw	r22, r28
 8b2:	6a 5f       	subi	r22, 0xFA	; 250
 8b4:	7f 4f       	sbci	r23, 0xFF	; 255
 8b6:	ce 01       	movw	r24, r28
 8b8:	0e 96       	adiw	r24, 0x0e	; 14
 8ba:	0e 94 f3 03 	call	0x7e6	; 0x7e6 <convertToIntArray>
 8be:	81 e3       	ldi	r24, 0x31	; 49
 8c0:	89 83       	std	Y+1, r24	; 0x01
 8c2:	8a 85       	ldd	r24, Y+10	; 0x0a
 8c4:	8a 83       	std	Y+2, r24	; 0x02
 8c6:	8c 85       	ldd	r24, Y+12	; 0x0c
 8c8:	8b 83       	std	Y+3, r24	; 0x03
 8ca:	8e 81       	ldd	r24, Y+6	; 0x06
 8cc:	8c 83       	std	Y+4, r24	; 0x04
 8ce:	88 85       	ldd	r24, Y+8	; 0x08
 8d0:	8d 83       	std	Y+5, r24	; 0x05
 8d2:	ce 01       	movw	r24, r28
 8d4:	01 96       	adiw	r24, 0x01	; 1
 8d6:	0e 94 df 03 	call	0x7be	; 0x7be <SendAnswer>
 8da:	65 96       	adiw	r28, 0x15	; 21
 8dc:	0f b6       	in	r0, 0x3f	; 63
 8de:	f8 94       	cli
 8e0:	de bf       	out	0x3e, r29	; 62
 8e2:	0f be       	out	0x3f, r0	; 63
 8e4:	cd bf       	out	0x3d, r28	; 61
 8e6:	df 91       	pop	r29
 8e8:	cf 91       	pop	r28
 8ea:	08 95       	ret

000008ec <__vector_1>:
 8ec:	1f 92       	push	r1
 8ee:	0f 92       	push	r0
 8f0:	0f b6       	in	r0, 0x3f	; 63
 8f2:	0f 92       	push	r0
 8f4:	11 24       	eor	r1, r1
 8f6:	2f 93       	push	r18
 8f8:	3f 93       	push	r19
 8fa:	4f 93       	push	r20
 8fc:	5f 93       	push	r21
 8fe:	6f 93       	push	r22
 900:	7f 93       	push	r23
 902:	8f 93       	push	r24
 904:	9f 93       	push	r25
 906:	af 93       	push	r26
 908:	bf 93       	push	r27
 90a:	ef 93       	push	r30
 90c:	ff 93       	push	r31
 90e:	cf 93       	push	r28
 910:	df 93       	push	r29
 912:	cd b7       	in	r28, 0x3d	; 61
 914:	de b7       	in	r29, 0x3e	; 62
 916:	25 97       	sbiw	r28, 0x05	; 5
 918:	de bf       	out	0x3e, r29	; 62
 91a:	cd bf       	out	0x3d, r28	; 61
 91c:	85 e0       	ldi	r24, 0x05	; 5
 91e:	e5 e6       	ldi	r30, 0x65	; 101
 920:	f0 e0       	ldi	r31, 0x00	; 0
 922:	de 01       	movw	r26, r28
 924:	11 96       	adiw	r26, 0x01	; 1
 926:	01 90       	ld	r0, Z+
 928:	0d 92       	st	X+, r0
 92a:	8a 95       	dec	r24
 92c:	e1 f7       	brne	.-8      	; 0x926 <__vector_1+0x3a>
 92e:	f8 94       	cli
 930:	c3 98       	cbi	0x18, 3	; 24
 932:	25 e0       	ldi	r18, 0x05	; 5
 934:	40 e0       	ldi	r20, 0x00	; 0
 936:	50 e0       	ldi	r21, 0x00	; 0
 938:	61 e6       	ldi	r22, 0x61	; 97
 93a:	80 e0       	ldi	r24, 0x00	; 0
 93c:	0e 94 d0 01 	call	0x3a0	; 0x3a0 <ReadWriteNRF>
 940:	fc 01       	movw	r30, r24
 942:	24 81       	ldd	r18, Z+4	; 0x04
 944:	27 31       	cpi	r18, 0x17	; 23
 946:	51 f4       	brne	.+20     	; 0x95c <__vector_1+0x70>
 948:	83 81       	ldd	r24, Z+3	; 0x03
 94a:	80 37       	cpi	r24, 0x70	; 112
 94c:	19 f4       	brne	.+6      	; 0x954 <__vector_1+0x68>
 94e:	0e 94 38 04 	call	0x870	; 0x870 <SendDHTData>
 952:	04 c0       	rjmp	.+8      	; 0x95c <__vector_1+0x70>
 954:	ce 01       	movw	r24, r28
 956:	01 96       	adiw	r24, 0x01	; 1
 958:	0e 94 df 03 	call	0x7be	; 0x7be <SendAnswer>
 95c:	78 94       	sei
 95e:	0f 90       	pop	r0
 960:	0f 90       	pop	r0
 962:	0f 90       	pop	r0
 964:	0f 90       	pop	r0
 966:	0f 90       	pop	r0
 968:	df 91       	pop	r29
 96a:	cf 91       	pop	r28
 96c:	ff 91       	pop	r31
 96e:	ef 91       	pop	r30
 970:	bf 91       	pop	r27
 972:	af 91       	pop	r26
 974:	9f 91       	pop	r25
 976:	8f 91       	pop	r24
 978:	7f 91       	pop	r23
 97a:	6f 91       	pop	r22
 97c:	5f 91       	pop	r21
 97e:	4f 91       	pop	r20
 980:	3f 91       	pop	r19
 982:	2f 91       	pop	r18
 984:	0f 90       	pop	r0
 986:	0f be       	out	0x3f, r0	; 63
 988:	0f 90       	pop	r0
 98a:	1f 90       	pop	r1
 98c:	18 95       	reti

0000098e <__subsf3>:
 98e:	50 58       	subi	r21, 0x80	; 128

00000990 <__addsf3>:
 990:	bb 27       	eor	r27, r27
 992:	aa 27       	eor	r26, r26
 994:	0e 94 df 04 	call	0x9be	; 0x9be <__addsf3x>
 998:	0c 94 99 06 	jmp	0xd32	; 0xd32 <__fp_round>
 99c:	0e 94 8b 06 	call	0xd16	; 0xd16 <__fp_pscA>
 9a0:	38 f0       	brcs	.+14     	; 0x9b0 <__addsf3+0x20>
 9a2:	0e 94 92 06 	call	0xd24	; 0xd24 <__fp_pscB>
 9a6:	20 f0       	brcs	.+8      	; 0x9b0 <__addsf3+0x20>
 9a8:	39 f4       	brne	.+14     	; 0x9b8 <__addsf3+0x28>
 9aa:	9f 3f       	cpi	r25, 0xFF	; 255
 9ac:	19 f4       	brne	.+6      	; 0x9b4 <__addsf3+0x24>
 9ae:	26 f4       	brtc	.+8      	; 0x9b8 <__addsf3+0x28>
 9b0:	0c 94 88 06 	jmp	0xd10	; 0xd10 <__fp_nan>
 9b4:	0e f4       	brtc	.+2      	; 0x9b8 <__addsf3+0x28>
 9b6:	e0 95       	com	r30
 9b8:	e7 fb       	bst	r30, 7
 9ba:	0c 94 59 06 	jmp	0xcb2	; 0xcb2 <__fp_inf>

000009be <__addsf3x>:
 9be:	e9 2f       	mov	r30, r25
 9c0:	0e 94 aa 06 	call	0xd54	; 0xd54 <__fp_split3>
 9c4:	58 f3       	brcs	.-42     	; 0x99c <__addsf3+0xc>
 9c6:	ba 17       	cp	r27, r26
 9c8:	62 07       	cpc	r22, r18
 9ca:	73 07       	cpc	r23, r19
 9cc:	84 07       	cpc	r24, r20
 9ce:	95 07       	cpc	r25, r21
 9d0:	20 f0       	brcs	.+8      	; 0x9da <__addsf3x+0x1c>
 9d2:	79 f4       	brne	.+30     	; 0x9f2 <__addsf3x+0x34>
 9d4:	a6 f5       	brtc	.+104    	; 0xa3e <__addsf3x+0x80>
 9d6:	0c 94 e4 06 	jmp	0xdc8	; 0xdc8 <__fp_zero>
 9da:	0e f4       	brtc	.+2      	; 0x9de <__addsf3x+0x20>
 9dc:	e0 95       	com	r30
 9de:	0b 2e       	mov	r0, r27
 9e0:	ba 2f       	mov	r27, r26
 9e2:	a0 2d       	mov	r26, r0
 9e4:	0b 01       	movw	r0, r22
 9e6:	b9 01       	movw	r22, r18
 9e8:	90 01       	movw	r18, r0
 9ea:	0c 01       	movw	r0, r24
 9ec:	ca 01       	movw	r24, r20
 9ee:	a0 01       	movw	r20, r0
 9f0:	11 24       	eor	r1, r1
 9f2:	ff 27       	eor	r31, r31
 9f4:	59 1b       	sub	r21, r25
 9f6:	99 f0       	breq	.+38     	; 0xa1e <__addsf3x+0x60>
 9f8:	59 3f       	cpi	r21, 0xF9	; 249
 9fa:	50 f4       	brcc	.+20     	; 0xa10 <__addsf3x+0x52>
 9fc:	50 3e       	cpi	r21, 0xE0	; 224
 9fe:	68 f1       	brcs	.+90     	; 0xa5a <__addsf3x+0x9c>
 a00:	1a 16       	cp	r1, r26
 a02:	f0 40       	sbci	r31, 0x00	; 0
 a04:	a2 2f       	mov	r26, r18
 a06:	23 2f       	mov	r18, r19
 a08:	34 2f       	mov	r19, r20
 a0a:	44 27       	eor	r20, r20
 a0c:	58 5f       	subi	r21, 0xF8	; 248
 a0e:	f3 cf       	rjmp	.-26     	; 0x9f6 <__addsf3x+0x38>
 a10:	46 95       	lsr	r20
 a12:	37 95       	ror	r19
 a14:	27 95       	ror	r18
 a16:	a7 95       	ror	r26
 a18:	f0 40       	sbci	r31, 0x00	; 0
 a1a:	53 95       	inc	r21
 a1c:	c9 f7       	brne	.-14     	; 0xa10 <__addsf3x+0x52>
 a1e:	7e f4       	brtc	.+30     	; 0xa3e <__addsf3x+0x80>
 a20:	1f 16       	cp	r1, r31
 a22:	ba 0b       	sbc	r27, r26
 a24:	62 0b       	sbc	r22, r18
 a26:	73 0b       	sbc	r23, r19
 a28:	84 0b       	sbc	r24, r20
 a2a:	ba f0       	brmi	.+46     	; 0xa5a <__addsf3x+0x9c>
 a2c:	91 50       	subi	r25, 0x01	; 1
 a2e:	a1 f0       	breq	.+40     	; 0xa58 <__addsf3x+0x9a>
 a30:	ff 0f       	add	r31, r31
 a32:	bb 1f       	adc	r27, r27
 a34:	66 1f       	adc	r22, r22
 a36:	77 1f       	adc	r23, r23
 a38:	88 1f       	adc	r24, r24
 a3a:	c2 f7       	brpl	.-16     	; 0xa2c <__addsf3x+0x6e>
 a3c:	0e c0       	rjmp	.+28     	; 0xa5a <__addsf3x+0x9c>
 a3e:	ba 0f       	add	r27, r26
 a40:	62 1f       	adc	r22, r18
 a42:	73 1f       	adc	r23, r19
 a44:	84 1f       	adc	r24, r20
 a46:	48 f4       	brcc	.+18     	; 0xa5a <__addsf3x+0x9c>
 a48:	87 95       	ror	r24
 a4a:	77 95       	ror	r23
 a4c:	67 95       	ror	r22
 a4e:	b7 95       	ror	r27
 a50:	f7 95       	ror	r31
 a52:	9e 3f       	cpi	r25, 0xFE	; 254
 a54:	08 f0       	brcs	.+2      	; 0xa58 <__addsf3x+0x9a>
 a56:	b0 cf       	rjmp	.-160    	; 0x9b8 <__addsf3+0x28>
 a58:	93 95       	inc	r25
 a5a:	88 0f       	add	r24, r24
 a5c:	08 f0       	brcs	.+2      	; 0xa60 <__addsf3x+0xa2>
 a5e:	99 27       	eor	r25, r25
 a60:	ee 0f       	add	r30, r30
 a62:	97 95       	ror	r25
 a64:	87 95       	ror	r24
 a66:	08 95       	ret

00000a68 <__cmpsf2>:
 a68:	0e 94 35 06 	call	0xc6a	; 0xc6a <__fp_cmp>
 a6c:	08 f4       	brcc	.+2      	; 0xa70 <__cmpsf2+0x8>
 a6e:	81 e0       	ldi	r24, 0x01	; 1
 a70:	08 95       	ret

00000a72 <__divsf3>:
 a72:	0e 94 4d 05 	call	0xa9a	; 0xa9a <__divsf3x>
 a76:	0c 94 99 06 	jmp	0xd32	; 0xd32 <__fp_round>
 a7a:	0e 94 92 06 	call	0xd24	; 0xd24 <__fp_pscB>
 a7e:	58 f0       	brcs	.+22     	; 0xa96 <__divsf3+0x24>
 a80:	0e 94 8b 06 	call	0xd16	; 0xd16 <__fp_pscA>
 a84:	40 f0       	brcs	.+16     	; 0xa96 <__divsf3+0x24>
 a86:	29 f4       	brne	.+10     	; 0xa92 <__divsf3+0x20>
 a88:	5f 3f       	cpi	r21, 0xFF	; 255
 a8a:	29 f0       	breq	.+10     	; 0xa96 <__divsf3+0x24>
 a8c:	0c 94 59 06 	jmp	0xcb2	; 0xcb2 <__fp_inf>
 a90:	51 11       	cpse	r21, r1
 a92:	0c 94 e5 06 	jmp	0xdca	; 0xdca <__fp_szero>
 a96:	0c 94 88 06 	jmp	0xd10	; 0xd10 <__fp_nan>

00000a9a <__divsf3x>:
 a9a:	0e 94 aa 06 	call	0xd54	; 0xd54 <__fp_split3>
 a9e:	68 f3       	brcs	.-38     	; 0xa7a <__divsf3+0x8>

00000aa0 <__divsf3_pse>:
 aa0:	99 23       	and	r25, r25
 aa2:	b1 f3       	breq	.-20     	; 0xa90 <__divsf3+0x1e>
 aa4:	55 23       	and	r21, r21
 aa6:	91 f3       	breq	.-28     	; 0xa8c <__divsf3+0x1a>
 aa8:	95 1b       	sub	r25, r21
 aaa:	55 0b       	sbc	r21, r21
 aac:	bb 27       	eor	r27, r27
 aae:	aa 27       	eor	r26, r26
 ab0:	62 17       	cp	r22, r18
 ab2:	73 07       	cpc	r23, r19
 ab4:	84 07       	cpc	r24, r20
 ab6:	38 f0       	brcs	.+14     	; 0xac6 <__divsf3_pse+0x26>
 ab8:	9f 5f       	subi	r25, 0xFF	; 255
 aba:	5f 4f       	sbci	r21, 0xFF	; 255
 abc:	22 0f       	add	r18, r18
 abe:	33 1f       	adc	r19, r19
 ac0:	44 1f       	adc	r20, r20
 ac2:	aa 1f       	adc	r26, r26
 ac4:	a9 f3       	breq	.-22     	; 0xab0 <__divsf3_pse+0x10>
 ac6:	35 d0       	rcall	.+106    	; 0xb32 <__divsf3_pse+0x92>
 ac8:	0e 2e       	mov	r0, r30
 aca:	3a f0       	brmi	.+14     	; 0xada <__divsf3_pse+0x3a>
 acc:	e0 e8       	ldi	r30, 0x80	; 128
 ace:	32 d0       	rcall	.+100    	; 0xb34 <__divsf3_pse+0x94>
 ad0:	91 50       	subi	r25, 0x01	; 1
 ad2:	50 40       	sbci	r21, 0x00	; 0
 ad4:	e6 95       	lsr	r30
 ad6:	00 1c       	adc	r0, r0
 ad8:	ca f7       	brpl	.-14     	; 0xacc <__divsf3_pse+0x2c>
 ada:	2b d0       	rcall	.+86     	; 0xb32 <__divsf3_pse+0x92>
 adc:	fe 2f       	mov	r31, r30
 ade:	29 d0       	rcall	.+82     	; 0xb32 <__divsf3_pse+0x92>
 ae0:	66 0f       	add	r22, r22
 ae2:	77 1f       	adc	r23, r23
 ae4:	88 1f       	adc	r24, r24
 ae6:	bb 1f       	adc	r27, r27
 ae8:	26 17       	cp	r18, r22
 aea:	37 07       	cpc	r19, r23
 aec:	48 07       	cpc	r20, r24
 aee:	ab 07       	cpc	r26, r27
 af0:	b0 e8       	ldi	r27, 0x80	; 128
 af2:	09 f0       	breq	.+2      	; 0xaf6 <__divsf3_pse+0x56>
 af4:	bb 0b       	sbc	r27, r27
 af6:	80 2d       	mov	r24, r0
 af8:	bf 01       	movw	r22, r30
 afa:	ff 27       	eor	r31, r31
 afc:	93 58       	subi	r25, 0x83	; 131
 afe:	5f 4f       	sbci	r21, 0xFF	; 255
 b00:	3a f0       	brmi	.+14     	; 0xb10 <__divsf3_pse+0x70>
 b02:	9e 3f       	cpi	r25, 0xFE	; 254
 b04:	51 05       	cpc	r21, r1
 b06:	78 f0       	brcs	.+30     	; 0xb26 <__divsf3_pse+0x86>
 b08:	0c 94 59 06 	jmp	0xcb2	; 0xcb2 <__fp_inf>
 b0c:	0c 94 e5 06 	jmp	0xdca	; 0xdca <__fp_szero>
 b10:	5f 3f       	cpi	r21, 0xFF	; 255
 b12:	e4 f3       	brlt	.-8      	; 0xb0c <__divsf3_pse+0x6c>
 b14:	98 3e       	cpi	r25, 0xE8	; 232
 b16:	d4 f3       	brlt	.-12     	; 0xb0c <__divsf3_pse+0x6c>
 b18:	86 95       	lsr	r24
 b1a:	77 95       	ror	r23
 b1c:	67 95       	ror	r22
 b1e:	b7 95       	ror	r27
 b20:	f7 95       	ror	r31
 b22:	9f 5f       	subi	r25, 0xFF	; 255
 b24:	c9 f7       	brne	.-14     	; 0xb18 <__divsf3_pse+0x78>
 b26:	88 0f       	add	r24, r24
 b28:	91 1d       	adc	r25, r1
 b2a:	96 95       	lsr	r25
 b2c:	87 95       	ror	r24
 b2e:	97 f9       	bld	r25, 7
 b30:	08 95       	ret
 b32:	e1 e0       	ldi	r30, 0x01	; 1
 b34:	66 0f       	add	r22, r22
 b36:	77 1f       	adc	r23, r23
 b38:	88 1f       	adc	r24, r24
 b3a:	bb 1f       	adc	r27, r27
 b3c:	62 17       	cp	r22, r18
 b3e:	73 07       	cpc	r23, r19
 b40:	84 07       	cpc	r24, r20
 b42:	ba 07       	cpc	r27, r26
 b44:	20 f0       	brcs	.+8      	; 0xb4e <__divsf3_pse+0xae>
 b46:	62 1b       	sub	r22, r18
 b48:	73 0b       	sbc	r23, r19
 b4a:	84 0b       	sbc	r24, r20
 b4c:	ba 0b       	sbc	r27, r26
 b4e:	ee 1f       	adc	r30, r30
 b50:	88 f7       	brcc	.-30     	; 0xb34 <__divsf3_pse+0x94>
 b52:	e0 95       	com	r30
 b54:	08 95       	ret

00000b56 <__fixsfsi>:
 b56:	0e 94 b2 05 	call	0xb64	; 0xb64 <__fixunssfsi>
 b5a:	68 94       	set
 b5c:	b1 11       	cpse	r27, r1
 b5e:	0c 94 e5 06 	jmp	0xdca	; 0xdca <__fp_szero>
 b62:	08 95       	ret

00000b64 <__fixunssfsi>:
 b64:	0e 94 b2 06 	call	0xd64	; 0xd64 <__fp_splitA>
 b68:	88 f0       	brcs	.+34     	; 0xb8c <__fixunssfsi+0x28>
 b6a:	9f 57       	subi	r25, 0x7F	; 127
 b6c:	98 f0       	brcs	.+38     	; 0xb94 <__fixunssfsi+0x30>
 b6e:	b9 2f       	mov	r27, r25
 b70:	99 27       	eor	r25, r25
 b72:	b7 51       	subi	r27, 0x17	; 23
 b74:	b0 f0       	brcs	.+44     	; 0xba2 <__fixunssfsi+0x3e>
 b76:	e1 f0       	breq	.+56     	; 0xbb0 <__fixunssfsi+0x4c>
 b78:	66 0f       	add	r22, r22
 b7a:	77 1f       	adc	r23, r23
 b7c:	88 1f       	adc	r24, r24
 b7e:	99 1f       	adc	r25, r25
 b80:	1a f0       	brmi	.+6      	; 0xb88 <__fixunssfsi+0x24>
 b82:	ba 95       	dec	r27
 b84:	c9 f7       	brne	.-14     	; 0xb78 <__fixunssfsi+0x14>
 b86:	14 c0       	rjmp	.+40     	; 0xbb0 <__fixunssfsi+0x4c>
 b88:	b1 30       	cpi	r27, 0x01	; 1
 b8a:	91 f0       	breq	.+36     	; 0xbb0 <__fixunssfsi+0x4c>
 b8c:	0e 94 e4 06 	call	0xdc8	; 0xdc8 <__fp_zero>
 b90:	b1 e0       	ldi	r27, 0x01	; 1
 b92:	08 95       	ret
 b94:	0c 94 e4 06 	jmp	0xdc8	; 0xdc8 <__fp_zero>
 b98:	67 2f       	mov	r22, r23
 b9a:	78 2f       	mov	r23, r24
 b9c:	88 27       	eor	r24, r24
 b9e:	b8 5f       	subi	r27, 0xF8	; 248
 ba0:	39 f0       	breq	.+14     	; 0xbb0 <__fixunssfsi+0x4c>
 ba2:	b9 3f       	cpi	r27, 0xF9	; 249
 ba4:	cc f3       	brlt	.-14     	; 0xb98 <__fixunssfsi+0x34>
 ba6:	86 95       	lsr	r24
 ba8:	77 95       	ror	r23
 baa:	67 95       	ror	r22
 bac:	b3 95       	inc	r27
 bae:	d9 f7       	brne	.-10     	; 0xba6 <__fixunssfsi+0x42>
 bb0:	3e f4       	brtc	.+14     	; 0xbc0 <__fixunssfsi+0x5c>
 bb2:	90 95       	com	r25
 bb4:	80 95       	com	r24
 bb6:	70 95       	com	r23
 bb8:	61 95       	neg	r22
 bba:	7f 4f       	sbci	r23, 0xFF	; 255
 bbc:	8f 4f       	sbci	r24, 0xFF	; 255
 bbe:	9f 4f       	sbci	r25, 0xFF	; 255
 bc0:	08 95       	ret

00000bc2 <__floatunsisf>:
 bc2:	e8 94       	clt
 bc4:	09 c0       	rjmp	.+18     	; 0xbd8 <__floatsisf+0x12>

00000bc6 <__floatsisf>:
 bc6:	97 fb       	bst	r25, 7
 bc8:	3e f4       	brtc	.+14     	; 0xbd8 <__floatsisf+0x12>
 bca:	90 95       	com	r25
 bcc:	80 95       	com	r24
 bce:	70 95       	com	r23
 bd0:	61 95       	neg	r22
 bd2:	7f 4f       	sbci	r23, 0xFF	; 255
 bd4:	8f 4f       	sbci	r24, 0xFF	; 255
 bd6:	9f 4f       	sbci	r25, 0xFF	; 255
 bd8:	99 23       	and	r25, r25
 bda:	a9 f0       	breq	.+42     	; 0xc06 <__floatsisf+0x40>
 bdc:	f9 2f       	mov	r31, r25
 bde:	96 e9       	ldi	r25, 0x96	; 150
 be0:	bb 27       	eor	r27, r27
 be2:	93 95       	inc	r25
 be4:	f6 95       	lsr	r31
 be6:	87 95       	ror	r24
 be8:	77 95       	ror	r23
 bea:	67 95       	ror	r22
 bec:	b7 95       	ror	r27
 bee:	f1 11       	cpse	r31, r1
 bf0:	f8 cf       	rjmp	.-16     	; 0xbe2 <__floatsisf+0x1c>
 bf2:	fa f4       	brpl	.+62     	; 0xc32 <__floatsisf+0x6c>
 bf4:	bb 0f       	add	r27, r27
 bf6:	11 f4       	brne	.+4      	; 0xbfc <__floatsisf+0x36>
 bf8:	60 ff       	sbrs	r22, 0
 bfa:	1b c0       	rjmp	.+54     	; 0xc32 <__floatsisf+0x6c>
 bfc:	6f 5f       	subi	r22, 0xFF	; 255
 bfe:	7f 4f       	sbci	r23, 0xFF	; 255
 c00:	8f 4f       	sbci	r24, 0xFF	; 255
 c02:	9f 4f       	sbci	r25, 0xFF	; 255
 c04:	16 c0       	rjmp	.+44     	; 0xc32 <__floatsisf+0x6c>
 c06:	88 23       	and	r24, r24
 c08:	11 f0       	breq	.+4      	; 0xc0e <__floatsisf+0x48>
 c0a:	96 e9       	ldi	r25, 0x96	; 150
 c0c:	11 c0       	rjmp	.+34     	; 0xc30 <__floatsisf+0x6a>
 c0e:	77 23       	and	r23, r23
 c10:	21 f0       	breq	.+8      	; 0xc1a <__floatsisf+0x54>
 c12:	9e e8       	ldi	r25, 0x8E	; 142
 c14:	87 2f       	mov	r24, r23
 c16:	76 2f       	mov	r23, r22
 c18:	05 c0       	rjmp	.+10     	; 0xc24 <__floatsisf+0x5e>
 c1a:	66 23       	and	r22, r22
 c1c:	71 f0       	breq	.+28     	; 0xc3a <__floatsisf+0x74>
 c1e:	96 e8       	ldi	r25, 0x86	; 134
 c20:	86 2f       	mov	r24, r22
 c22:	70 e0       	ldi	r23, 0x00	; 0
 c24:	60 e0       	ldi	r22, 0x00	; 0
 c26:	2a f0       	brmi	.+10     	; 0xc32 <__floatsisf+0x6c>
 c28:	9a 95       	dec	r25
 c2a:	66 0f       	add	r22, r22
 c2c:	77 1f       	adc	r23, r23
 c2e:	88 1f       	adc	r24, r24
 c30:	da f7       	brpl	.-10     	; 0xc28 <__floatsisf+0x62>
 c32:	88 0f       	add	r24, r24
 c34:	96 95       	lsr	r25
 c36:	87 95       	ror	r24
 c38:	97 f9       	bld	r25, 7
 c3a:	08 95       	ret

00000c3c <floor>:
 c3c:	0e 94 cc 06 	call	0xd98	; 0xd98 <__fp_trunc>
 c40:	90 f0       	brcs	.+36     	; 0xc66 <floor+0x2a>
 c42:	9f 37       	cpi	r25, 0x7F	; 127
 c44:	48 f4       	brcc	.+18     	; 0xc58 <floor+0x1c>
 c46:	91 11       	cpse	r25, r1
 c48:	16 f0       	brts	.+4      	; 0xc4e <floor+0x12>
 c4a:	0c 94 e5 06 	jmp	0xdca	; 0xdca <__fp_szero>
 c4e:	60 e0       	ldi	r22, 0x00	; 0
 c50:	70 e0       	ldi	r23, 0x00	; 0
 c52:	80 e8       	ldi	r24, 0x80	; 128
 c54:	9f eb       	ldi	r25, 0xBF	; 191
 c56:	08 95       	ret
 c58:	26 f4       	brtc	.+8      	; 0xc62 <floor+0x26>
 c5a:	1b 16       	cp	r1, r27
 c5c:	61 1d       	adc	r22, r1
 c5e:	71 1d       	adc	r23, r1
 c60:	81 1d       	adc	r24, r1
 c62:	0c 94 5f 06 	jmp	0xcbe	; 0xcbe <__fp_mintl>
 c66:	0c 94 7a 06 	jmp	0xcf4	; 0xcf4 <__fp_mpack>

00000c6a <__fp_cmp>:
 c6a:	99 0f       	add	r25, r25
 c6c:	00 08       	sbc	r0, r0
 c6e:	55 0f       	add	r21, r21
 c70:	aa 0b       	sbc	r26, r26
 c72:	e0 e8       	ldi	r30, 0x80	; 128
 c74:	fe ef       	ldi	r31, 0xFE	; 254
 c76:	16 16       	cp	r1, r22
 c78:	17 06       	cpc	r1, r23
 c7a:	e8 07       	cpc	r30, r24
 c7c:	f9 07       	cpc	r31, r25
 c7e:	c0 f0       	brcs	.+48     	; 0xcb0 <__fp_cmp+0x46>
 c80:	12 16       	cp	r1, r18
 c82:	13 06       	cpc	r1, r19
 c84:	e4 07       	cpc	r30, r20
 c86:	f5 07       	cpc	r31, r21
 c88:	98 f0       	brcs	.+38     	; 0xcb0 <__fp_cmp+0x46>
 c8a:	62 1b       	sub	r22, r18
 c8c:	73 0b       	sbc	r23, r19
 c8e:	84 0b       	sbc	r24, r20
 c90:	95 0b       	sbc	r25, r21
 c92:	39 f4       	brne	.+14     	; 0xca2 <__fp_cmp+0x38>
 c94:	0a 26       	eor	r0, r26
 c96:	61 f0       	breq	.+24     	; 0xcb0 <__fp_cmp+0x46>
 c98:	23 2b       	or	r18, r19
 c9a:	24 2b       	or	r18, r20
 c9c:	25 2b       	or	r18, r21
 c9e:	21 f4       	brne	.+8      	; 0xca8 <__fp_cmp+0x3e>
 ca0:	08 95       	ret
 ca2:	0a 26       	eor	r0, r26
 ca4:	09 f4       	brne	.+2      	; 0xca8 <__fp_cmp+0x3e>
 ca6:	a1 40       	sbci	r26, 0x01	; 1
 ca8:	a6 95       	lsr	r26
 caa:	8f ef       	ldi	r24, 0xFF	; 255
 cac:	81 1d       	adc	r24, r1
 cae:	81 1d       	adc	r24, r1
 cb0:	08 95       	ret

00000cb2 <__fp_inf>:
 cb2:	97 f9       	bld	r25, 7
 cb4:	9f 67       	ori	r25, 0x7F	; 127
 cb6:	80 e8       	ldi	r24, 0x80	; 128
 cb8:	70 e0       	ldi	r23, 0x00	; 0
 cba:	60 e0       	ldi	r22, 0x00	; 0
 cbc:	08 95       	ret

00000cbe <__fp_mintl>:
 cbe:	88 23       	and	r24, r24
 cc0:	71 f4       	brne	.+28     	; 0xcde <__fp_mintl+0x20>
 cc2:	77 23       	and	r23, r23
 cc4:	21 f0       	breq	.+8      	; 0xcce <__fp_mintl+0x10>
 cc6:	98 50       	subi	r25, 0x08	; 8
 cc8:	87 2b       	or	r24, r23
 cca:	76 2f       	mov	r23, r22
 ccc:	07 c0       	rjmp	.+14     	; 0xcdc <__fp_mintl+0x1e>
 cce:	66 23       	and	r22, r22
 cd0:	11 f4       	brne	.+4      	; 0xcd6 <__fp_mintl+0x18>
 cd2:	99 27       	eor	r25, r25
 cd4:	0d c0       	rjmp	.+26     	; 0xcf0 <__fp_mintl+0x32>
 cd6:	90 51       	subi	r25, 0x10	; 16
 cd8:	86 2b       	or	r24, r22
 cda:	70 e0       	ldi	r23, 0x00	; 0
 cdc:	60 e0       	ldi	r22, 0x00	; 0
 cde:	2a f0       	brmi	.+10     	; 0xcea <__fp_mintl+0x2c>
 ce0:	9a 95       	dec	r25
 ce2:	66 0f       	add	r22, r22
 ce4:	77 1f       	adc	r23, r23
 ce6:	88 1f       	adc	r24, r24
 ce8:	da f7       	brpl	.-10     	; 0xce0 <__fp_mintl+0x22>
 cea:	88 0f       	add	r24, r24
 cec:	96 95       	lsr	r25
 cee:	87 95       	ror	r24
 cf0:	97 f9       	bld	r25, 7
 cf2:	08 95       	ret

00000cf4 <__fp_mpack>:
 cf4:	9f 3f       	cpi	r25, 0xFF	; 255
 cf6:	31 f0       	breq	.+12     	; 0xd04 <__fp_mpack_finite+0xc>

00000cf8 <__fp_mpack_finite>:
 cf8:	91 50       	subi	r25, 0x01	; 1
 cfa:	20 f4       	brcc	.+8      	; 0xd04 <__fp_mpack_finite+0xc>
 cfc:	87 95       	ror	r24
 cfe:	77 95       	ror	r23
 d00:	67 95       	ror	r22
 d02:	b7 95       	ror	r27
 d04:	88 0f       	add	r24, r24
 d06:	91 1d       	adc	r25, r1
 d08:	96 95       	lsr	r25
 d0a:	87 95       	ror	r24
 d0c:	97 f9       	bld	r25, 7
 d0e:	08 95       	ret

00000d10 <__fp_nan>:
 d10:	9f ef       	ldi	r25, 0xFF	; 255
 d12:	80 ec       	ldi	r24, 0xC0	; 192
 d14:	08 95       	ret

00000d16 <__fp_pscA>:
 d16:	00 24       	eor	r0, r0
 d18:	0a 94       	dec	r0
 d1a:	16 16       	cp	r1, r22
 d1c:	17 06       	cpc	r1, r23
 d1e:	18 06       	cpc	r1, r24
 d20:	09 06       	cpc	r0, r25
 d22:	08 95       	ret

00000d24 <__fp_pscB>:
 d24:	00 24       	eor	r0, r0
 d26:	0a 94       	dec	r0
 d28:	12 16       	cp	r1, r18
 d2a:	13 06       	cpc	r1, r19
 d2c:	14 06       	cpc	r1, r20
 d2e:	05 06       	cpc	r0, r21
 d30:	08 95       	ret

00000d32 <__fp_round>:
 d32:	09 2e       	mov	r0, r25
 d34:	03 94       	inc	r0
 d36:	00 0c       	add	r0, r0
 d38:	11 f4       	brne	.+4      	; 0xd3e <__fp_round+0xc>
 d3a:	88 23       	and	r24, r24
 d3c:	52 f0       	brmi	.+20     	; 0xd52 <__fp_round+0x20>
 d3e:	bb 0f       	add	r27, r27
 d40:	40 f4       	brcc	.+16     	; 0xd52 <__fp_round+0x20>
 d42:	bf 2b       	or	r27, r31
 d44:	11 f4       	brne	.+4      	; 0xd4a <__fp_round+0x18>
 d46:	60 ff       	sbrs	r22, 0
 d48:	04 c0       	rjmp	.+8      	; 0xd52 <__fp_round+0x20>
 d4a:	6f 5f       	subi	r22, 0xFF	; 255
 d4c:	7f 4f       	sbci	r23, 0xFF	; 255
 d4e:	8f 4f       	sbci	r24, 0xFF	; 255
 d50:	9f 4f       	sbci	r25, 0xFF	; 255
 d52:	08 95       	ret

00000d54 <__fp_split3>:
 d54:	57 fd       	sbrc	r21, 7
 d56:	90 58       	subi	r25, 0x80	; 128
 d58:	44 0f       	add	r20, r20
 d5a:	55 1f       	adc	r21, r21
 d5c:	59 f0       	breq	.+22     	; 0xd74 <__fp_splitA+0x10>
 d5e:	5f 3f       	cpi	r21, 0xFF	; 255
 d60:	71 f0       	breq	.+28     	; 0xd7e <__fp_splitA+0x1a>
 d62:	47 95       	ror	r20

00000d64 <__fp_splitA>:
 d64:	88 0f       	add	r24, r24
 d66:	97 fb       	bst	r25, 7
 d68:	99 1f       	adc	r25, r25
 d6a:	61 f0       	breq	.+24     	; 0xd84 <__fp_splitA+0x20>
 d6c:	9f 3f       	cpi	r25, 0xFF	; 255
 d6e:	79 f0       	breq	.+30     	; 0xd8e <__fp_splitA+0x2a>
 d70:	87 95       	ror	r24
 d72:	08 95       	ret
 d74:	12 16       	cp	r1, r18
 d76:	13 06       	cpc	r1, r19
 d78:	14 06       	cpc	r1, r20
 d7a:	55 1f       	adc	r21, r21
 d7c:	f2 cf       	rjmp	.-28     	; 0xd62 <__fp_split3+0xe>
 d7e:	46 95       	lsr	r20
 d80:	f1 df       	rcall	.-30     	; 0xd64 <__fp_splitA>
 d82:	08 c0       	rjmp	.+16     	; 0xd94 <__fp_splitA+0x30>
 d84:	16 16       	cp	r1, r22
 d86:	17 06       	cpc	r1, r23
 d88:	18 06       	cpc	r1, r24
 d8a:	99 1f       	adc	r25, r25
 d8c:	f1 cf       	rjmp	.-30     	; 0xd70 <__fp_splitA+0xc>
 d8e:	86 95       	lsr	r24
 d90:	71 05       	cpc	r23, r1
 d92:	61 05       	cpc	r22, r1
 d94:	08 94       	sec
 d96:	08 95       	ret

00000d98 <__fp_trunc>:
 d98:	0e 94 b2 06 	call	0xd64	; 0xd64 <__fp_splitA>
 d9c:	a0 f0       	brcs	.+40     	; 0xdc6 <__fp_trunc+0x2e>
 d9e:	be e7       	ldi	r27, 0x7E	; 126
 da0:	b9 17       	cp	r27, r25
 da2:	88 f4       	brcc	.+34     	; 0xdc6 <__fp_trunc+0x2e>
 da4:	bb 27       	eor	r27, r27
 da6:	9f 38       	cpi	r25, 0x8F	; 143
 da8:	60 f4       	brcc	.+24     	; 0xdc2 <__fp_trunc+0x2a>
 daa:	16 16       	cp	r1, r22
 dac:	b1 1d       	adc	r27, r1
 dae:	67 2f       	mov	r22, r23
 db0:	78 2f       	mov	r23, r24
 db2:	88 27       	eor	r24, r24
 db4:	98 5f       	subi	r25, 0xF8	; 248
 db6:	f7 cf       	rjmp	.-18     	; 0xda6 <__fp_trunc+0xe>
 db8:	86 95       	lsr	r24
 dba:	77 95       	ror	r23
 dbc:	67 95       	ror	r22
 dbe:	b1 1d       	adc	r27, r1
 dc0:	93 95       	inc	r25
 dc2:	96 39       	cpi	r25, 0x96	; 150
 dc4:	c8 f3       	brcs	.-14     	; 0xdb8 <__fp_trunc+0x20>
 dc6:	08 95       	ret

00000dc8 <__fp_zero>:
 dc8:	e8 94       	clt

00000dca <__fp_szero>:
 dca:	bb 27       	eor	r27, r27
 dcc:	66 27       	eor	r22, r22
 dce:	77 27       	eor	r23, r23
 dd0:	cb 01       	movw	r24, r22
 dd2:	97 f9       	bld	r25, 7
 dd4:	08 95       	ret

00000dd6 <__gesf2>:
 dd6:	0e 94 35 06 	call	0xc6a	; 0xc6a <__fp_cmp>
 dda:	08 f4       	brcc	.+2      	; 0xdde <__gesf2+0x8>
 ddc:	8f ef       	ldi	r24, 0xFF	; 255
 dde:	08 95       	ret

00000de0 <__mulsf3>:
 de0:	0e 94 03 07 	call	0xe06	; 0xe06 <__mulsf3x>
 de4:	0c 94 99 06 	jmp	0xd32	; 0xd32 <__fp_round>
 de8:	0e 94 8b 06 	call	0xd16	; 0xd16 <__fp_pscA>
 dec:	38 f0       	brcs	.+14     	; 0xdfc <__mulsf3+0x1c>
 dee:	0e 94 92 06 	call	0xd24	; 0xd24 <__fp_pscB>
 df2:	20 f0       	brcs	.+8      	; 0xdfc <__mulsf3+0x1c>
 df4:	95 23       	and	r25, r21
 df6:	11 f0       	breq	.+4      	; 0xdfc <__mulsf3+0x1c>
 df8:	0c 94 59 06 	jmp	0xcb2	; 0xcb2 <__fp_inf>
 dfc:	0c 94 88 06 	jmp	0xd10	; 0xd10 <__fp_nan>
 e00:	11 24       	eor	r1, r1
 e02:	0c 94 e5 06 	jmp	0xdca	; 0xdca <__fp_szero>

00000e06 <__mulsf3x>:
 e06:	0e 94 aa 06 	call	0xd54	; 0xd54 <__fp_split3>
 e0a:	70 f3       	brcs	.-36     	; 0xde8 <__mulsf3+0x8>

00000e0c <__mulsf3_pse>:
 e0c:	95 9f       	mul	r25, r21
 e0e:	c1 f3       	breq	.-16     	; 0xe00 <__mulsf3+0x20>
 e10:	95 0f       	add	r25, r21
 e12:	50 e0       	ldi	r21, 0x00	; 0
 e14:	55 1f       	adc	r21, r21
 e16:	62 9f       	mul	r22, r18
 e18:	f0 01       	movw	r30, r0
 e1a:	72 9f       	mul	r23, r18
 e1c:	bb 27       	eor	r27, r27
 e1e:	f0 0d       	add	r31, r0
 e20:	b1 1d       	adc	r27, r1
 e22:	63 9f       	mul	r22, r19
 e24:	aa 27       	eor	r26, r26
 e26:	f0 0d       	add	r31, r0
 e28:	b1 1d       	adc	r27, r1
 e2a:	aa 1f       	adc	r26, r26
 e2c:	64 9f       	mul	r22, r20
 e2e:	66 27       	eor	r22, r22
 e30:	b0 0d       	add	r27, r0
 e32:	a1 1d       	adc	r26, r1
 e34:	66 1f       	adc	r22, r22
 e36:	82 9f       	mul	r24, r18
 e38:	22 27       	eor	r18, r18
 e3a:	b0 0d       	add	r27, r0
 e3c:	a1 1d       	adc	r26, r1
 e3e:	62 1f       	adc	r22, r18
 e40:	73 9f       	mul	r23, r19
 e42:	b0 0d       	add	r27, r0
 e44:	a1 1d       	adc	r26, r1
 e46:	62 1f       	adc	r22, r18
 e48:	83 9f       	mul	r24, r19
 e4a:	a0 0d       	add	r26, r0
 e4c:	61 1d       	adc	r22, r1
 e4e:	22 1f       	adc	r18, r18
 e50:	74 9f       	mul	r23, r20
 e52:	33 27       	eor	r19, r19
 e54:	a0 0d       	add	r26, r0
 e56:	61 1d       	adc	r22, r1
 e58:	23 1f       	adc	r18, r19
 e5a:	84 9f       	mul	r24, r20
 e5c:	60 0d       	add	r22, r0
 e5e:	21 1d       	adc	r18, r1
 e60:	82 2f       	mov	r24, r18
 e62:	76 2f       	mov	r23, r22
 e64:	6a 2f       	mov	r22, r26
 e66:	11 24       	eor	r1, r1
 e68:	9f 57       	subi	r25, 0x7F	; 127
 e6a:	50 40       	sbci	r21, 0x00	; 0
 e6c:	9a f0       	brmi	.+38     	; 0xe94 <__mulsf3_pse+0x88>
 e6e:	f1 f0       	breq	.+60     	; 0xeac <__mulsf3_pse+0xa0>
 e70:	88 23       	and	r24, r24
 e72:	4a f0       	brmi	.+18     	; 0xe86 <__mulsf3_pse+0x7a>
 e74:	ee 0f       	add	r30, r30
 e76:	ff 1f       	adc	r31, r31
 e78:	bb 1f       	adc	r27, r27
 e7a:	66 1f       	adc	r22, r22
 e7c:	77 1f       	adc	r23, r23
 e7e:	88 1f       	adc	r24, r24
 e80:	91 50       	subi	r25, 0x01	; 1
 e82:	50 40       	sbci	r21, 0x00	; 0
 e84:	a9 f7       	brne	.-22     	; 0xe70 <__mulsf3_pse+0x64>
 e86:	9e 3f       	cpi	r25, 0xFE	; 254
 e88:	51 05       	cpc	r21, r1
 e8a:	80 f0       	brcs	.+32     	; 0xeac <__mulsf3_pse+0xa0>
 e8c:	0c 94 59 06 	jmp	0xcb2	; 0xcb2 <__fp_inf>
 e90:	0c 94 e5 06 	jmp	0xdca	; 0xdca <__fp_szero>
 e94:	5f 3f       	cpi	r21, 0xFF	; 255
 e96:	e4 f3       	brlt	.-8      	; 0xe90 <__mulsf3_pse+0x84>
 e98:	98 3e       	cpi	r25, 0xE8	; 232
 e9a:	d4 f3       	brlt	.-12     	; 0xe90 <__mulsf3_pse+0x84>
 e9c:	86 95       	lsr	r24
 e9e:	77 95       	ror	r23
 ea0:	67 95       	ror	r22
 ea2:	b7 95       	ror	r27
 ea4:	f7 95       	ror	r31
 ea6:	e7 95       	ror	r30
 ea8:	9f 5f       	subi	r25, 0xFF	; 255
 eaa:	c1 f7       	brne	.-16     	; 0xe9c <__mulsf3_pse+0x90>
 eac:	fe 2b       	or	r31, r30
 eae:	88 0f       	add	r24, r24
 eb0:	91 1d       	adc	r25, r1
 eb2:	96 95       	lsr	r25
 eb4:	87 95       	ror	r24
 eb6:	97 f9       	bld	r25, 7
 eb8:	08 95       	ret

00000eba <_exit>:
 eba:	f8 94       	cli

00000ebc <__stop_program>:
 ebc:	ff cf       	rjmp	.-2      	; 0xebc <__stop_program>
